(dp1
S'output'
p2
S''
sS'layer'
p3
S'/home/lucasdavila/central/ws/web2py/src/web2pydev/applications/plugin_appreport/models/plugin_appreport.py'
p4
sS'code'
p5
S'# coding: utf8\n\n#to start using plugin_appreport in a controller define the following action:   \n#para come\xc3\xa7ar a usar o plugin_appreport em um controlador defina o seguinte action:\n#\n#def report():\n#    form = plugin_appreport.REPORTFORM(db.table_name)\n#    \n#    if form.accepts(request.vars, session):\n#        return plugin_appreport.REPORT(table = db.table_name, title = \'List of ?\',filter = dict(form.vars))\n#            \n#    return dict(form = form)\n\n\n#reference to appreport module\nplugin_appreport_appreport = local_import(\'plugin_appreport.appreport\', reload = False)\n\nclass PluginAppreport:\n    \n    def REPORTFORM(self, table):\n        """wrapper to module >> appreport.form_report_web2py / class >> FormReportWeb2py / method >> get_form\n        """\n        dir(plugin_appreport_appreport)\n        return plugin_appreport_appreport.form_report.FormReportWeb2py(table = table).get_form()\n\n    #TODO add parametro html, se != None chamar classe html ?\n    def REPORT(self, table = None, filter = \'\', title = \'Report\', html = \'\', orientation = \'P\', unit = \'mm\', format = \'A4\'):\n        """wrapper to module >> appreport.report_html_db_web2py / class >> ReportHtmlDbWeb2py / method >> dumps\n\n        table = db.table    \n        filter = dict(form.vars) or {\'table_name.field_name\':\'value\', \'table_name.field2_name\':\'value2\'}\n        title = \'title of report\'\n        html = html custom if given the report will be generated as html passed, ignoring the table definition, example:\n            <html>\n                <body>\n                    <table>\n                        <thead>\n                            <tr>\n                                <th>Id</th>\n                                <th>Name</th>\n                                <th>Phone</th>\n                                <th>Email</th>\n                            </tr>\n                        </thead>\n                        <tbody>\n                            <tr>\n                                <td>1</td>\n                                <td>lucas davila</td>\n                                <td>123455</td>\n                                <td>lucassdvl@gmail.com</td>\n                            </tr>\n                        </tbody>\n                    </table>\n                </body>\n            </html>\n\n            \n        Orientation: \'P\' for portrait (retrato) or \'L\' for landscape (paisagem)\n    \n        """\n        \n        user_name = auth.user.first_name if auth.user is not None else \'\'\n        \n        if html.strip() != \'\':\n            report = plugin_appreport_appreport.report.ReportHtml(user_name = user_name,\n            title = title, html = html, orientation = orientation, unit = unit, format = format)\n        else:\n            report = plugin_appreport_appreport.report.ReportHtmlDbWeb2py(table = table, filter = filter, user_name = user_name, title = title, orientation = orientation, unit = unit, format = format)\n                    \n        pdf_builder = plugin_appreport_appreport.pdf_builder.PdfBuilderPyfpdf(report = report)\n            \n        return plugin_appreport_appreport.report_factory.ReportFactoryWeb2py(response = response, request = request, path_reports = \'private/plugin_appreport/reports\', pdf_builder = pdf_builder).dumps(report = report)\n            \nplugin_appreport = PluginAppreport()\n'
p6
sS'snapshot'
p7
(dp8
S'exception'
p9
(dp10
S'__getslice__'
p11
S"<method-wrapper '__getslice__' of exceptions.SyntaxError object>"
p12
sS'text'
p13
S"'def prepvars(self, vars = {}, table):\\n'"
p14
sS'__str__'
p15
S"<method-wrapper '__str__' of exceptions.SyntaxError object>"
p16
sS'__reduce__'
p17
S'<built-in method __reduce__ of exceptions.SyntaxError object>'
p18
sS'__dict__'
p19
S'{}'
p20
sS'__sizeof__'
p21
S'<built-in method __sizeof__ of exceptions.SyntaxError object>'
p22
sS'__init__'
p23
S"<method-wrapper '__init__' of exceptions.SyntaxError object>"
p24
sS'__setattr__'
p25
S"<method-wrapper '__setattr__' of exceptions.SyntaxError object>"
p26
sS'__reduce_ex__'
p27
S'<built-in method __reduce_ex__ of exceptions.SyntaxError object>'
p28
sS'__new__'
p29
S'<built-in method __new__ of type object>'
p30
sS'__format__'
p31
S'<built-in method __format__ of exceptions.SyntaxError object>'
p32
sS'__class__'
p33
S"<type 'exceptions.SyntaxError'>"
p34
sS'filename'
p35
S"'applications/plugin_appreport/modules/plugin_appreport/appreport/libs/utils.py'"
p36
sS'lineno'
p37
S'12'
p38
sS'msg'
p39
S"'non-default argument follows default argument'"
p40
sS'__doc__'
p41
S"'Invalid syntax.'"
p42
sS'__getitem__'
p43
S"<method-wrapper '__getitem__' of exceptions.SyntaxError object>"
p44
sS'__setstate__'
p45
S'<built-in method __setstate__ of exceptions.SyntaxError object>'
p46
sS'__getattribute__'
p47
S"<method-wrapper '__getattribute__' of exceptions.SyntaxError object>"
p48
sS'print_file_and_line'
p49
S'None'
p50
sS'args'
p51
S"('non-default argument follows default argument', ('applications/plugin_appreport/modules/plugin_appreport/appreport/libs/utils.py', 12, None, 'def prepvars(self, vars = {}, table):\\n'))"
p52
sS'__subclasshook__'
p53
S'<built-in method __subclasshook__ of type object>'
p54
sS'offset'
p55
S'None'
p56
sS'__unicode__'
p57
S'<built-in method __unicode__ of exceptions.SyntaxError object>'
p58
sS'__delattr__'
p59
S"<method-wrapper '__delattr__' of exceptions.SyntaxError object>"
p60
sS'__repr__'
p61
S"<method-wrapper '__repr__' of exceptions.SyntaxError object>"
p62
sS'__hash__'
p63
S"<method-wrapper '__hash__' of exceptions.SyntaxError object>"
p64
ssS'evalue'
p65
S'non-default argument follows default argument (utils.py, line 12)'
p66
sS'request'
p67
(dp68
S'function'
p69
S"'report_persons'"
p70
sS'body'
p71
S'<cStringIO.StringO object>'
p72
sS'wsgi'
p73
S"<Storage {'start_response': <function <lambda> a...>, 'HTTP_ACCEPT_ENCODING': 'gzip,deflate,sdch'}}>"
p74
sS'extension'
p75
S"'html'"
p76
sS'vars'
p77
S'<Storage {}>'
p78
sS'cid'
p79
S'None'
p80
sS'url'
p81
S'<gluon.html.XML object>'
p82
sS'raw_extension'
p83
S'None'
p84
sg51
S'[]'
p85
sS'controller'
p86
S"'person'"
p87
sS'cookies'
p88
S"<SimpleCookie: session_id_admin='127.0.0.1-ab65c...'127.0.0.1-3fb54433-9a7e-4167-b09f-f0891a2471ca'>"
p89
sS'application'
p90
S"'plugin_appreport'"
p91
sS'ajax'
p92
S'False'
p93
sS'client'
p94
S"'127.0.0.1'"
p95
sS'env'
p96
S"<Storage {'wsgi_multithread': True, 'debugging':... 'wsgi_run_once': False, 'remote_port': '41105'}>"
p97
sS'raw_args'
p98
S'None'
p99
sS'get_vars'
p100
S'<Storage {}>'
p101
sS'folder'
p102
S"'/home/lucasdavila/central/ws/web2py/src/web2pydev/applications/plugin_appreport/'"
p103
sS'now'
p104
S'datetime.datetime(2011, 1, 25, 23, 8, 13, 771535)'
p105
sS'post_vars'
p106
S'<Storage {}>'
p107
ssS'frames'
p108
(lp109
(dp110
S'file'
p111
S'/home/lucasdavila/central/ws/web2py/src/web2pydev/gluon/restricted.py'
p112
sS'dump'
p113
(dp114
S'environment'
p115
S"{'A': <class 'gluon.html.A'>, 'Auth': <class 'gluon.tools.Auth'>, 'B': <class 'gluon.html.B'>, 'BEAUTIFY': <class 'gluon.html.BEAUTIFY'>, 'BODY': <class 'gluon.html.BODY'>, 'BR': <class 'gluon.html.BR'>, 'CENTER': <class 'gluon.html.CENTER'>, 'CLEANUP': <class 'gluon.validators.CLEANUP'>, 'CODE': <class 'gluon.html.CODE'>, 'CRYPT': <class 'gluon.validators.CRYPT'>, ...}"
p116
sS'ccode'
p117
S'<code object <module> at 0x9ffdb18, file "/home/...n_appreport/models/plugin_appreport.py", line 16>'
p118
ssS'lnum'
p119
I188
sS'lines'
p120
(dp121
I192
S'        # XXX Show exception in Wing IDE if running in debugger'
p122
sI183
S'        if type(code) == types.CodeType:'
p123
sI184
S'            ccode = code'
p124
sI185
S'        else:'
p125
sI186
S'            ccode = compile2(code,layer)'
p126
sI187
S''
sI188
S'        exec ccode in environment'
p127
sI189
S'    except HTTP:'
p128
sI190
S'        raise'
p129
sI191
S'    except Exception:'
p130
ssS'call'
p131
S"(code='# coding: utf8\\n\\n#to start using plugin_appreport...           \\nplugin_appreport = PluginAppreport()\\n', environment={'A': <class 'gluon.html.A'>, 'Auth': <class 'gluon.tools.Auth'>, 'B': <class 'gluon.html.B'>, 'BEAUTIFY': <class 'gluon.html.BEAUTIFY'>, 'BODY': <class 'gluon.html.BODY'>, 'BR': <class 'gluon.html.BR'>, 'CENTER': <class 'gluon.html.CENTER'>, 'CLEANUP': <class 'gluon.validators.CLEANUP'>, 'CODE': <class 'gluon.html.CODE'>, 'CRYPT': <class 'gluon.validators.CRYPT'>, ...}, layer='/home/lucasdavila/central/ws/web2py/src/web2pyde...tions/plugin_appreport/models/plugin_appreport.py')"
p132
sS'func'
p133
S'restricted'
p134
sa(dp135
g111
S'/home/lucasdavila/central/ws/web2py/src/web2pydev/applications/plugin_appreport/models/plugin_appreport.py'
p136
sg113
(dp137
S'local_import'
p138
S'<function <lambda>>'
p139
sS'builtinreload'
p140
S'<built-in function reload>'
p141
sS'builtinFalse'
p142
g93
sS'plugin_appreport_appreport'
p143
S'undefined'
p144
ssg119
I16
sg120
(dp145
I11
S'#'
sI12
S'#    return dict(form = form)'
p146
sI13
S''
sI14
S''
sI15
S'#reference to appreport module'
p147
sI16
S"plugin_appreport_appreport = local_import('plugin_appreport.appreport', reload = False)"
p148
sI17
S''
sI18
S'class PluginAppreport:'
p149
sI19
S''
sI20
S'    def REPORTFORM(self, table):'
p150
ssg131
S'()'
p151
sg133
S'<module>'
p152
sa(dp153
g111
S'/home/lucasdavila/central/ws/web2py/src/web2pydev/gluon/compileapp.py'
p154
sg113
(dp155
S'global local_import_aux'
p156
S'<function local_import_aux>'
p157
sS'reload'
p158
g93
sS'app'
p159
S"'plugin_appreport'"
p160
sS'name'
p161
S"'plugin_appreport.appreport'"
p162
ssg119
I241
sg120
(dp163
I236
S"    environment['SQLFORM'] = SQLFORM"
p164
sI237
S"    environment['SQLTABLE'] = SQLTABLE"
p165
sI238
S"    environment['LOAD'] = LoadFactory(environment)"
p166
sI239
S"    environment['local_import'] = \\"
p167
sI240
S'        lambda name, reload=False, app=request.application:\\'
p168
sI241
S'        local_import_aux(name,reload,app)'
p169
sI242
S"    BaseAdapter.set_folder(os.path.join(request.folder, 'databases'))"
p170
sI243
S'    response._view_environment = copy.copy(environment)'
p171
sI244
S'    return environment'
p172
sI245
S''
ssg131
S"(name='plugin_appreport.appreport', reload=False, app='plugin_appreport')"
p173
sg133
S'<lambda>'
p174
sa(dp175
g111
S'/home/lucasdavila/central/ws/web2py/src/web2pydev/gluon/compileapp.py'
p176
sg113
(dp177
S'name'
p178
S"'applications.plugin_appreport.modules.plugin_appreport.appreport'"
p179
sS'module'
p180
g144
sS'builtin__import__'
p181
S'<built-in function __import__>'
p182
ssg119
I172
sg120
(dp183
I167
S'    This prevents conflict between applications and un-necessary execs.'
p184
sI168
S'    It can be used to import any module, including regular Python modules.'
p185
sI169
S'    """'
p186
sI170
S"    items = name.replace('/','.')"
p187
sI171
S'    name = "applications.%s.modules.%s" % (app, items)'
p188
sI172
S'    module = __import__(name)'
p189
sI173
S'    for item in name.split(".")[1:]:'
p190
sI174
S'        module = getattr(module, item)'
p191
sI175
S'    if force:'
p192
sI176
S'        reload(module)'
p193
ssg131
S"(name='applications.plugin_appreport.modules.plugin_appreport.appreport', force=False, app='plugin_appreport')"
p194
sg133
S'local_import_aux'
p195
sa(dp196
g111
S'/home/lucasdavila/central/ws/web2py/src/web2pydev/applications/plugin_appreport/modules/plugin_appreport/appreport/__init__.py'
p197
sg113
(dp198
S'report'
p199
g144
ssg119
I3
sg120
(dp200
I1
S'import form_report'
p201
sI2
S'import pdf_builder'
p202
sI3
S'import report'
p203
sI4
S'import report_factory'
p204
ssg131
S'()'
p205
sg133
g152
sa(dp206
g111
S'/home/lucasdavila/central/ws/web2py/src/web2pydev/applications/plugin_appreport/modules/plugin_appreport/appreport/report.py'
p207
sg113
(dp208
S'libs'
p209
g144
sS'utils'
p210
g144
ssg119
I6
sg120
(dp211
I2
S''
sI3
S'import os.path'
p212
sI4
S'import sys'
p213
sI5
S''
sI6
S'from libs import utils'
p214
sI7
S'try:'
p215
sI8
S'    from gluon.html import *'
p216
sI9
S'    from gluon.http import *'
p217
sI10
S'    from gluon.validators import *'
p218
sI11
S'    from gluon.sqlhtml import *'
p219
ssg131
S'()'
p220
sg133
g152
sasS'pyver'
p221
S'Python 2.6.6: /usr/bin/python'
p222
sS'session'
p223
(dp224
S'_formkey[person/None]'
p225
S"'694cb263-72ed-4f0e-a3f5-f2dd18fe1b84'"
p226
sS'_formkey[default]'
p227
S"'f68fb381-0022-418e-9e27-83e229e47bcd'"
p228
sS'auth'
p229
S'None'
p230
ssS'etype'
p231
S"<type 'exceptions.SyntaxError'>"
p232
sS'date'
p233
S'Tue Jan 25 23:08:13 2011'
p234
sS'response'
p235
(dp236
S'status'
p237
S'200'
p238
sg71
S'<cStringIO.StringO object>'
p239
sg88
S"<SimpleCookie: session_id_plugin_appreport='127.0.0.1-56d0272b-4d25-4fdb-bf2c-da2c92731bad'>"
p240
sS'_vars'
p241
S'None'
p242
sS'title'
p243
S"'Plugin appreport'"
p244
sS'session_file'
p245
S"<open file '/home/lucasdavila/central/ws/web2py/...6d0272b-4d25-4fdb-bf2c-da2c92731bad', mode 'rb+'>"
p246
sS'flash'
p247
S"''"
p248
sS'_custom_rollback'
p249
S'None'
p250
sS'session_id'
p251
S"'127.0.0.1-56d0272b-4d25-4fdb-bf2c-da2c92731bad'"
p252
sS'headers'
p253
S"<Storage {'Expires': 'Wed, 26 Jan 2011 01:08:13 ...he, must-revalidate, post-check=0, pre-check=0'}>"
p254
sS'meta'
p255
S"<Storage {'keywords': 'web2py, python, framework... 'Web2py Enterprise Framework', 'author': 'you'}>"
p256
sS'session_filename'
p257
S"'/home/lucasdavila/central/ws/web2py/src/web2pyde...ns/127.0.0.1-56d0272b-4d25-4fdb-bf2c-da2c92731bad'"
p258
sS'postprocessing'
p259
S'[]'
p260
sS'menu'
p261
S"[(<lazyT 'Home'>, False, <gluon.html.XML object>, []), (<lazyT 'Files'>, False, <gluon.html.XML object>, [('person', False, <gluon.html.XML object>)]), (<lazyT 'Repors'>, False, <gluon.html.XML object>, [('Simple', False, <gluon.html.XML object>), ('Custon', False, <gluon.html.XML object>), ('Complex', False, <gluon.html.XML object>)]), (<lazyT 'About'>, False, <gluon.html.XML object>, [])]"
p262
sS'_view_environment'
p263
S"{'A': <class 'gluon.html.A'>, 'B': <class 'gluon.html.B'>, 'BEAUTIFY': <class 'gluon.html.BEAUTIFY'>, 'BODY': <class 'gluon.html.BODY'>, 'BR': <class 'gluon.html.BR'>, 'CENTER': <class 'gluon.html.CENTER'>, 'CLEANUP': <class 'gluon.validators.CLEANUP'>, 'CODE': <class 'gluon.html.CODE'>, 'CRYPT': <class 'gluon.validators.CRYPT'>, 'DAL': <class 'gluon.dal.DAL'>, ...}"
p264
sS'subtitle'
p265
S"<lazyT 'customize me!'>"
p266
sS'session_id_name'
p267
S"'session_id_plugin_appreport'"
p268
sS'_custom_commit'
p269
S'None'
p270
sS'_caller'
p271
S'<function <lambda>>'
p272
sS'files'
p273
S'[]'
p274
sS'view'
p275
S"'person/report_persons.html'"
p276
ssS'locals'
p277
(dp278
S'__builtins__'
p279
S"{'ArithmeticError': <type 'exceptions.ArithmeticError'>, 'AssertionError': <type 'exceptions.AssertionError'>, 'AttributeError': <type 'exceptions.AttributeError'>, 'BaseException': <type 'exceptions.BaseException'>, 'BufferError': <type 'exceptions.BufferError'>, 'BytesWarning': <type 'exceptions.BytesWarning'>, 'DeprecationWarning': <type 'exceptions.DeprecationWarning'>, 'EOFError': <type 'exceptions.EOFError'>, 'Ellipsis': Ellipsis, 'EnvironmentError': <type 'exceptions.EnvironmentError'>, ...}"
p280
sS'__file__'
p281
S'None'
p282
sS'__package__'
p283
S'None'
p284
sS'sys'
p285
S'None'
p286
sS'__name__'
p287
S'None'
p288
sS'os'
p289
S'None'
p290
sg41
S'None'
p291
sssS'traceback'
p292
S'Traceback (most recent call last):\n  File "/home/lucasdavila/central/ws/web2py/src/web2pydev/gluon/restricted.py", line 188, in restricted\n    exec ccode in environment\n  File "/home/lucasdavila/central/ws/web2py/src/web2pydev/applications/plugin_appreport/models/plugin_appreport.py", line 16, in <module>\n    plugin_appreport_appreport = local_import(\'plugin_appreport.appreport\', reload = False)\n  File "/home/lucasdavila/central/ws/web2py/src/web2pydev/gluon/compileapp.py", line 241, in <lambda>\n    local_import_aux(name,reload,app)\n  File "/home/lucasdavila/central/ws/web2py/src/web2pydev/gluon/compileapp.py", line 172, in local_import_aux\n    module = __import__(name)\n  File "applications/plugin_appreport/modules/plugin_appreport/appreport/__init__.py", line 3, in <module>\n    import report\n  File "applications/plugin_appreport/modules/plugin_appreport/appreport/report.py", line 6, in <module>\n    from libs import utils\n  File "applications/plugin_appreport/modules/plugin_appreport/appreport/libs/utils.py", line 12\n    def prepvars(self, vars = {}, table):\nSyntaxError: non-default argument follows default argument\n'
p293
s.