(dp1
S'output'
p2
S''
sS'layer'
p3
S'/home/lucasdavila/central/ws/web2py/src/web2pydev/applications/plugin_appreport/views/person/complex_report.html'
p4
sS'code'
p5
S'if request.get_vars.show_report != \'True\':\n    response.write(\'\\n\\n    \', escape=False)\n    response.write(\'<!DOCTYPE html>\\n<html lang="\', escape=False)\n    response.write(T.accepted_language or \'en\')\n    response.write(\'" class="no-js"><!-- no-js need it for modernzr -->\\n  <head>\\n    \\n    <meta charset="utf-8" />\\t  \\t\\n    <!-- www.phpied.com/conditional-comments-block-downloads/ -->\\n    <!--[if IE]><![endif]-->    \\n    <!-- Always force latest IE rendering engine \\n\\t (even in intranet) & Chrome Frame \\n\\t Remove this if you use the .htaccess -->\\n    <meta http-equiv="X-UA-Compatible" content="IE=edge,chrome=1">\\n    \\n    <title>\', escape=False)\n    response.write(response.title or request.application)\n    response.write(\'</title>\\n    \\n    <!-- http://dev.w3.org/html5/markup/meta.name.html -->\\n    <meta name="application-name" content="\', escape=False)\n    response.write(request.application)\n    response.write(\'" />\\t\\n    \\n    <!-- Speaking of Google, don\\\'t forget to set your site up: \\n\\t http://google.com/webmasters -->\\n    <meta name="google-site-verification" content="" />\\n    \\n    <!--  Mobile Viewport Fix\\n\\t  j.mp/mobileviewport & davidbcalhoun.com/2010/viewport-metatag \\n\\t  device-width: Occupy full width of the screen in its current orientation\\n\\t  initial-scale = 1.0 retains dimensions instead of zooming out if page height > device height\\n\\t  maximum-scale = 1.0 retains dimensions instead of zooming in if page width < device width\\n      -->\\n    <meta name="viewport" content="width=device-width; initial-scale=1.0; maximum-scale=1.0;">\\n    \\n    <!-- Place favicon.ico and apple-touch-icon.png in the root of your domain and delete these references -->\\n    <link rel="shortcut icon" href="\', escape=False)\n    response.write(URL(\'static\',\'favicon.ico\'))\n    response.write(\'" type="image/x-icon">\\n    <link rel="apple-touch-icon" href="\', escape=False)\n    response.write(URL(\'static\',\'favicon.png\'))\n    response.write(\'">\\n\\n    <!-- For the less-enabled mobile browsers like Opera Mini -->\\n    <link rel="stylesheet" media="handheld" href="\', escape=False)\n    response.write(URL(\'static\',\'css/handheld.css\'))\n    response.write(\'">\\n    \\n    <!-- All JavaScript at the bottom, except for Modernizr which enables HTML5 elements & feature detects -->\\n    <script src="\', escape=False)\n    response.write(URL(\'static\',\'js/modernizr-1.6.min.js\'))\n    response.write(\'"></script>\\n    \\n    \', escape=False)\n    #------  require CSS and JS files for this page (read info in base.css) ------\n    response.write(\'\\n    \', escape=False)\n    response.files.append(URL(\'static\',\'css/base.css\'))\n    response.write(\'\\n    \', escape=False)\n    response.files.append(URL(\'static\',\'css/superfish.css\'))\n    response.write(\'\\n    \', escape=False)\n    response.files.append(URL(\'static\',\'js/superfish.js\'))\n    response.write(\'\\n    \', escape=False)\n    #------ include web2py specific js code (jquery, calendar, form stuff) ------\n    response.write(\'\\n    \', escape=False)\n    response.files.insert(0,URL(\'static\',\'js/jquery.js\'))\n    response.files.insert(1,URL(\'static\',\'css/calendar.css\'))\n    response.files.insert(2,URL(\'static\',\'js/calendar.js\'))\n    for _item in response.meta or []:\n        response.write(\'\\n     <meta name="\', escape=False)\n        response.write(_item)\n        response.write(\'" content="\', escape=False)\n        response.write(response.meta[_item])\n        response.write(\'" />\', escape=False)\n        pass\n    for _k,_file in enumerate(response.files or []):\n        if _file in response.files[:_k]:\n            continue\n        _file0=_file.lower().split(\'?\')[0]\n        if _file0.endswith(\'.css\'):\n            response.write(\'\\n     <link href="\', escape=False)\n            response.write(_file)\n            response.write(\'" rel="stylesheet" type="text/css" />\', escape=False)\n        elif _file0.endswith(\'.js\'):\n            response.write(\'\\n     <script src="\', escape=False)\n            response.write(_file)\n            response.write(\'" type="text/javascript"></script>\', escape=False)\n            pass\n        pass\n    response.write(\'\\n  \\n<script type="text/javascript"><!--\\nfunction popup(url) {\\n  newwindow=window.open(url,\\\'name\\\',\\\'height=400,width=600\\\');\\n  if (window.focus) newwindow.focus();\\n  return false;\\n}\\nfunction collapse(id) { jQuery(\\\'#\\\'+id).slideToggle(); }\\nfunction fade(id,value) { if(value>0) jQuery(\\\'#\\\'+id).hide().fadeIn(\\\'slow\\\'); else jQuery(\\\'#\\\'+id).show().fadeOut(\\\'slow\\\'); }\\nfunction ajax(u,s,t) {\\n    query = \\\'\\\';\\n    if (typeof s == "string") {\\n        d = jQuery(s).serialize();\\n        if(d){ query = d; }\\n    } else {\\n        pcs = [];\\n        for(i=0; i<s.length; i++) {\\n            q = jQuery("[name="+s[i]+"]").serialize();\\n            if(q){pcs.push(q);}\\n        }\\n        if (pcs.length>0){query = pcs.join("&");}\\n    }\\n    jQuery.ajax({type: "POST", url: u, data: query, success: function(msg) { if(t) { if(t==\\\':eval\\\') eval(msg); else jQuery("#" + t).html(msg); } } }); \\n}\\n\\nString.prototype.reverse = function () { return this.split(\\\'\\\').reverse().join(\\\'\\\');};\\nfunction web2py_ajax_init() {\\n  jQuery(\\\'.hidden\\\').hide();\\n  jQuery(\\\'.error\\\').hide().slideDown(\\\'slow\\\');\\n  jQuery(\\\'.flash\\\').click(function() { jQuery(this).fadeOut(\\\'slow\\\'); return false; });\\n  // jQuery(\\\'input[type=submit]\\\').click(function(){var t=jQuery(this);t.hide();t.after(\\\'<input class="submit_disabled" disabled="disabled" type="submit" name="\\\'+t.attr("name")+\\\'_dummy" value="\\\'+t.val()+\\\'">\\\')});\\n  jQuery(\\\'input.integer\\\').live(\\\'keyup\\\', function(){this.value=this.value.reverse().replace(/[^0-9\\\\-]|\\\\-(?=.)/g,\\\'\\\').reverse();});\\n  jQuery(\\\'input.double,input.decimal\\\').live(\\\'keyup\\\', function(){this.value=this.value.reverse().replace(/[^0-9\\\\-\\\\.]|[\\\\-](?=.)|[\\\\.](?=[0-9]*[\\\\.])/g,\\\'\\\').reverse();});\\n  jQuery("input[type=\\\'checkbox\\\'].delete").live(\\\'click\\\', function(){ if(this.checked) if(!confirm("\', escape=False)\n    response.write(T(\'Sure you want to delete this object?\'))\n    response.write(\'")) this.checked=false; });\\n  try {jQuery("input.date").live(\\\'focus\\\',function() {Calendar.setup({\\n     inputField:this, ifFormat:"\', escape=False)\n    response.write(T(\'%Y-%m-%d\'))\n    response.write(\'", showsTime:false\\n  }); }); } catch(e) {};\\n  try { jQuery("input.datetime").live(\\\'focus\\\', function() {Calendar.setup({\\n     inputField:this, ifFormat:"\', escape=False)\n    response.write(T(\'%Y-%m-%d %H:%M:%S\'))\n    response.write(\'", showsTime: true,timeFormat: "24"\\n  }); }); } catch(e) {};\\n\\n  jQuery("input.time").live(\\\'focus\\\', function() { var el = jQuery(this); \\n          if (!el.hasClass(\\\'hasTimeEntry\\\')) try { el.timeEntry(); } catch(e) {}; \\n  });\\n};\\n\\njQuery(document).ready(function() {   \\n   var flash = jQuery(\\\'.flash\\\');\\n   flash.hide();\\n   if(flash.html()) flash.slideDown();\\n   web2py_ajax_init();\\n});\\nfunction web2py_trap_form(action,target) {\\n   jQuery(\\\'#\\\'+target+\\\' form\\\').each(function(i){\\n      var form=jQuery(this);\\n      if(!form.hasClass(\\\'no_trap\\\'))\\n        form.submit(function(obj){\\n         jQuery(\\\'.flash\\\').hide().html(\\\'\\\');\\n         web2py_ajax_page(\\\'post\\\',action,form.serialize(),target);\\n         return false;\\n      });\\n   });\\n}\\nfunction web2py_ajax_page(method,action,data,target) {\\n  jQuery.ajax({\\\'type\\\':method,\\\'url\\\':action,\\\'data\\\':data,\\n    \\\'beforeSend\\\':function(xhr) {\\n      xhr.setRequestHeader(\\\'web2py-component-location\\\',document.location);\\n      xhr.setRequestHeader(\\\'web2py-component-element\\\',target);},\\n    \\\'complete\\\':function(xhr,text){\\n      var html=xhr.responseText;\\n      var content=xhr.getResponseHeader(\\\'web2py-component-content\\\'); \\n      var command=xhr.getResponseHeader(\\\'web2py-component-command\\\');\\n      var flash=xhr.getResponseHeader(\\\'web2py-component-flash\\\');\\n      var t = jQuery(\\\'#\\\'+target);\\n      if(content==\\\'prepend\\\') t.prepend(html); \\n      else if(content==\\\'append\\\') t.append(html);\\n      else if(content!=\\\'hide\\\') t.html(html);  \\n      web2py_trap_form(action,target);\\n      web2py_ajax_init();      \\n      if(command) eval(command);\\n      if(flash) jQuery(\\\'.flash\\\').html(flash).slideDown();\\n      }\\n    });\\n}\\nfunction web2py_component(action,target) {\\n  jQuery(document).ready(function(){ web2py_ajax_page(\\\'get\\\',action,null,target); });\\n}\\nfunction web2py_comet(url,onmessage,onopen,onclose) {\\n  if ("WebSocket" in window) {\\n    var ws = new WebSocket(url);\\n    ws.onopen = onopen?onopen:(function(){});\\n    ws.onmessage = onmessage;\\n    ws.onclose = onclose?onclose:(function(){});\\n    return true; // supported\\n  } else return false; // not supported\\n}\\n//--></script>\\n\', escape=False)\n    response.write(\'\\n\\n    \', escape=False)\n    #using sidebars need to know what sidebar you want to use\n    #prior of using it, because of static width size of content, you can use\n    #left_sidebar, right_sidebar, both or none (False left and right)\n    left_sidebar_enabled = globals().get(\'left_sidebar_enabled\',False)\n    right_sidebar_enabled = globals().get(\'right_sidebar_enabled\',False)\n    if left_sidebar_enabled and right_sidebar_enabled: width_content=\'63%\'\nelif left_sidebar_enabled != right_sidebar_enabled: width_content=\'740px\'\nelse: width_content=\'100%\'\nif left_sidebar_enabled: left_sidebar_style = \'style="display: block;"\'\nelse: left_sidebar_style = \'style="display: none;"\'\nif right_sidebar_enabled: right_sidebar_style = \'style="display: block;"\'\nelse: right_sidebar_style = \'style="display: none;"\'\nstyle_content = \'style="width: %s"\' % width_content\nresponse.write(\'\\n  </head>\\n  \\n  <!-- paulirish.com/2008/conditional-stylesheets-vs-css-hacks-answer-neither/ -->\\t\\n  <!--[if lt IE 7 ]> <body class="ie6"> <![endif]-->\\n  <!--[if IE 7 ]>    <body class="ie7"> <![endif]-->\\n  <!--[if IE 8 ]>    <body class="ie8"> <![endif]-->\\n  <!--[if IE 9 ]>    <body class="ie9"> <![endif]-->\\n  <!--[if (gt IE 9)|!(IE)]><!--> <body> <!--<![endif]-->\\n    \\n    <div class="flash">\', escape=False)\nresponse.write(response.flash or \'\')\nresponse.write(\'</div> <!-- notification div -->\\n    \\n    <div id="container">\\t      \\t\\t      \\t\\n      \\n      <div id="wrapper">\\t\\t\\n\\t\\n\\t<div id="header"> <!-- header and login nav -->\\n\\t  \', escape=False)\nresponse.write(\' <!-- this is default header -->\\n\\t  <!--\', escape=False)\ntry:\n    response.write(auth.navbar(action=URL(\'default\',\'user\')))\nexcept:pass\nresponse.write(\'-->\\n\\t  <div id="logo"><!-- put your logo here --></div>\\n\\t  <div style="clear: both;"></div><!-- Clear the divs -->\\n\\t  \', escape=False)\nresponse.write(\'\\t\\t\\n\\n          <h1>\', escape=False)\nresponse.write(response.title or \'response.title\')\nresponse.write(\'</h1>            \\n\\t</div><!-- header  -->\\n\\t\\n\\t<div id="statusbar"><!-- statusbar is menu zone -->\\n\\t  \', escape=False)\nresponse.write(\' <!-- this is default statusbar -->\\n\\t  \', escape=False)\n#------ superfish menu ------\nresponse.write(\'\\n\\t  \', escape=False)\nresponse.write(MENU(response.menu,_class=\'sf-menu\'))\nresponse.write(\'\\n\\t  <script type="text/javascript">\\n\\t    jQuery(document).ready(function(){\\n\\t    jQuery(\\\'ul.sf-menu\\\').superfish();});\\n\\t  </script>\\n\\t  <div style="clear: both;"></div><!-- Clear the divs -->\\t\\n\\t  \', escape=False)\nresponse.write(\'\\t\\t\\t\\t\\n\\t</div><!-- statusbar -->\\n\\t\\n\\t<div id="page"> <!-- Here my central body -->\\n\\n<strong>Note: </strong>This plugin is in alpha version, you can contribute by making a fork on <a href="https://github.com/lucasdavila/plugin-appreport">github</a> :)\\n<hr />\\n\\t  \', escape=False)\nif left_sidebar_enabled:\n    response.write(\'\\n          <div id="left_sidebar" \', escape=False)\n    response.write(XML(left_sidebar_style))\n    response.write(\' >\\n            <div style="padding: 4px;">\\n\\t      \', escape=False)\n    response.write(\'Content Left Sidebar\', escape=False)\n    response.write(\'\\t\\t  \\n            </div>\\n          </div><!-- left_sidebar -->\\n\\t  \', escape=False)\n    pass\nresponse.write(\'\\n\\n\\t  <!-- content -->\\n\\t  <div id="content" \', escape=False)\nresponse.write(XML(style_content))\nresponse.write(\' >\\n\\t    \', escape=False)\nresponse.write(\'\\n\\n    <h2>Complex report</h2>\\n    \', escape=False)\nresponse.write(form)\nresponse.write(\'\\n\\n\', escape=False)\npass\nresponse.write(\'\\n\', escape=False)\nresponse.write(\'\\t\\n\\t  </div>\\n\\t  <!-- content -->\\n\\n\\t  \', escape=False)\nif right_sidebar_enabled:\n    response.write(\'\\n          <div id="right_sidebar" \', escape=False)\n    response.write(XML(right_sidebar_style))\n    response.write(\' >\\n            <div style="padding: 4px;">\\n              \', escape=False)\n    response.write(\'Content Right Sidebar\', escape=False)\n    response.write(\'\\n            </div>\\n\\t  </div><!-- right_sidebar -->\\n          \', escape=False)\n    pass\nresponse.write(\'\\n\\n\\n\\t  <div style="clear: both;"></div><!-- Clear the divs -->\\n\\t  \\n\\t</div><!-- page -->\\t\\t\\t\\t\\t\\t\\t\\n\\t\\n\\t<div id="footer">\\n\\t  \', escape=False)\nresponse.write(\' <!-- this is default footer -->\\n\\t  <a href="http://www.web2py.com/" style="float: left; padding-right: 6px;">\\n\\t    <img src="\', escape=False)\nresponse.write(URL(\'static\',\'images/poweredby.png\'))\nresponse.write(\'"/>\\n\\t  </a>\\n\\t  \', escape=False)\nresponse.write(T(\'Copyright\'))\nresponse.write(\' &#169; 2010, 2011\\t\\t\\t\\t\\n\\t  <div style="clear: both;"></div><!-- Clear the divs -->\\n\\t  \', escape=False)\nresponse.write(\'\\n\\n\\t</div><!-- footer -->\\t\\t\\t\\n      </div><!-- wrapper -->\\n    </div><!-- container -->\\t\\t\\n    \\n    <!--[if lt IE 7 ]>\\n\\t<script src="\', escape=False)\nresponse.write(URL(\'static\',\'js/dd_belatedpng.js\'))\nresponse.write(\'"></script>\\n\\t<script> DD_belatedPNG.fix(\\\'img, .png_bg\\\'); //fix any <img> or .png_bg background-images </script>\\n\\t<![endif]-->\\n    \\n    <!-- asynchronous google analytics: mathiasbynens.be/notes/async-analytics-snippet \\n\\t change the UA-XXXXX-X to be your site\\\'s ID -->\\n    <!--   \\n\\t   <script>\\n\\t     var _gaq = [[\\\'_setAccount\\\', \\\'UA-XXXXX-X\\\'], [\\\'_trackPageview\\\']];\\n\\t     (function(d, t) {\\n\\t     var g = d.createElement(t),\\n\\t     s = d.getElementsByTagName(t)[0];\\n\\t     g.async = true;\\n\\t     g.src = \\\'//www.google-analytics.com/ga.js\\\';\\n\\t     s.parentNode.insertBefore(g, s);\\n\\t     })(document, \\\'script\\\');\\n\\t   </script>\\n\\t   -->    \\n  </body>\\n</html>\\n\', escape=False)'
p6
sS'snapshot'
p7
(dp8
S'exception'
p9
(dp10
S'__hash__'
p11
S"<method-wrapper '__hash__' of exceptions.NameError object>"
p12
sS'__setattr__'
p13
S"<method-wrapper '__setattr__' of exceptions.NameError object>"
p14
sS'__reduce_ex__'
p15
S'<built-in method __reduce_ex__ of exceptions.NameError object>'
p16
sS'__getslice__'
p17
S"<method-wrapper '__getslice__' of exceptions.NameError object>"
p18
sS'__getitem__'
p19
S"<method-wrapper '__getitem__' of exceptions.NameError object>"
p20
sS'__setstate__'
p21
S'<built-in method __setstate__ of exceptions.NameError object>'
p22
sS'__reduce__'
p23
S'<built-in method __reduce__ of exceptions.NameError object>'
p24
sS'__str__'
p25
S"<method-wrapper '__str__' of exceptions.NameError object>"
p26
sS'__format__'
p27
S'<built-in method __format__ of exceptions.NameError object>'
p28
sS'__getattribute__'
p29
S"<method-wrapper '__getattribute__' of exceptions.NameError object>"
p30
sS'__class__'
p31
S"<type 'exceptions.NameError'>"
p32
sS'__unicode__'
p33
S'<built-in method __unicode__ of exceptions.NameError object>'
p34
sS'__delattr__'
p35
S"<method-wrapper '__delattr__' of exceptions.NameError object>"
p36
sS'__subclasshook__'
p37
S'<built-in method __subclasshook__ of type object>'
p38
sS'__repr__'
p39
S"<method-wrapper '__repr__' of exceptions.NameError object>"
p40
sS'args'
p41
S'("name \'width_content\' is not defined",)'
p42
sS'__dict__'
p43
S'{}'
p44
sS'__sizeof__'
p45
S'<built-in method __sizeof__ of exceptions.NameError object>'
p46
sS'__doc__'
p47
S"'Name not found globally.'"
p48
sS'__init__'
p49
S"<method-wrapper '__init__' of exceptions.NameError object>"
p50
sS'__new__'
p51
S'<built-in method __new__ of type object>'
p52
ssS'evalue'
p53
S"name 'width_content' is not defined"
p54
sS'request'
p55
(dp56
S'function'
p57
S"'complex_report'"
p58
sS'body'
p59
S'<cStringIO.StringO object>'
p60
sS'wsgi'
p61
S"<Storage {'start_response': <function <lambda> a...>, 'HTTP_ACCEPT_ENCODING': 'gzip,deflate,sdch'}}>"
p62
sS'extension'
p63
S"'html'"
p64
sS'vars'
p65
S'<Storage {}>'
p66
sS'cid'
p67
S'None'
p68
sS'url'
p69
S'<gluon.html.XML object>'
p70
sS'raw_extension'
p71
S'None'
p72
sg41
S'[]'
p73
sS'controller'
p74
S"'person'"
p75
sS'cookies'
p76
S"<SimpleCookie: session_id_admin='127.0.0.1-ab65c...'127.0.0.1-3fb54433-9a7e-4167-b09f-f0891a2471ca'>"
p77
sS'application'
p78
S"'plugin_appreport'"
p79
sS'ajax'
p80
S'False'
p81
sS'client'
p82
S"'127.0.0.1'"
p83
sS'env'
p84
S"<Storage {'wsgi_multithread': True, 'debugging':... 'wsgi_run_once': False, 'remote_port': '36214'}>"
p85
sS'raw_args'
p86
S'None'
p87
sS'get_vars'
p88
S'<Storage {}>'
p89
sS'folder'
p90
S"'/home/lucasdavila/central/ws/web2py/src/web2pydev/applications/plugin_appreport/'"
p91
sS'now'
p92
S'datetime.datetime(2011, 1, 25, 22, 12, 6, 235255)'
p93
sS'post_vars'
p94
S'<Storage {}>'
p95
ssS'frames'
p96
(lp97
(dp98
S'file'
p99
S'/home/lucasdavila/central/ws/web2py/src/web2pydev/gluon/restricted.py'
p100
sS'dump'
p101
(dp102
S'environment'
p103
S"{'A': <class 'gluon.html.A'>, 'Auth': <class 'gluon.tools.Auth'>, 'B': <class 'gluon.html.B'>, 'BEAUTIFY': <class 'gluon.html.BEAUTIFY'>, 'BODY': <class 'gluon.html.BODY'>, 'BR': <class 'gluon.html.BR'>, 'CENTER': <class 'gluon.html.CENTER'>, 'CLEANUP': <class 'gluon.validators.CLEANUP'>, 'CODE': <class 'gluon.html.CODE'>, 'CRYPT': <class 'gluon.validators.CRYPT'>, ...}"
p104
sS'ccode'
p105
S'<code object <module> at 0xa984f08, file "/home/...report/views/person/complex_report.html", line 1>'
p106
ssS'lnum'
p107
I188
sS'lines'
p108
(dp109
I192
S'        # XXX Show exception in Wing IDE if running in debugger'
p110
sI183
S'        if type(code) == types.CodeType:'
p111
sI184
S'            ccode = code'
p112
sI185
S'        else:'
p113
sI186
S'            ccode = compile2(code,layer)'
p114
sI187
S''
sI188
S'        exec ccode in environment'
p115
sI189
S'    except HTTP:'
p116
sI190
S'        raise'
p117
sI191
S'    except Exception:'
p118
ssS'call'
p119
S'(code="if request.get_vars.show_report != \'True\':\\n    r...t   -->    \\\\n  </body>\\\\n</html>\\\\n\', escape=False)", environment={\'A\': <class \'gluon.html.A\'>, \'Auth\': <class \'gluon.tools.Auth\'>, \'B\': <class \'gluon.html.B\'>, \'BEAUTIFY\': <class \'gluon.html.BEAUTIFY\'>, \'BODY\': <class \'gluon.html.BODY\'>, \'BR\': <class \'gluon.html.BR\'>, \'CENTER\': <class \'gluon.html.CENTER\'>, \'CLEANUP\': <class \'gluon.validators.CLEANUP\'>, \'CODE\': <class \'gluon.html.CODE\'>, \'CRYPT\': <class \'gluon.validators.CRYPT\'>, ...}, layer=\'/home/lucasdavila/central/ws/web2py/src/web2pyde...plugin_appreport/views/person/complex_report.html\')'
p120
sS'func'
p121
S'restricted'
p122
sa(dp123
g99
S'/home/lucasdavila/central/ws/web2py/src/web2pydev/applications/plugin_appreport/views/person/complex_report.html'
p124
sg101
(dp125
sg107
I72
sg108
(dp126
I64
S"    right_sidebar_enabled = globals().get('right_sidebar_enabled',False)"
p127
sI65
S"    if left_sidebar_enabled and right_sidebar_enabled: width_content='63%'"
p128
sI66
S"elif left_sidebar_enabled != right_sidebar_enabled: width_content='740px'"
p129
sI67
S"else: width_content='100%'"
p130
sI68
S'if left_sidebar_enabled: left_sidebar_style = \'style="display: block;"\''
p131
sI69
S'else: left_sidebar_style = \'style="display: none;"\''
p132
sI70
S'if right_sidebar_enabled: right_sidebar_style = \'style="display: block;"\''
p133
sI71
S'else: right_sidebar_style = \'style="display: none;"\''
p134
sI72
S'style_content = \'style="width: %s"\' % width_content'
p135
sI73
S'response.write(\'\\n  </head>\\n  \\n  <!-- paulirish.com/2008/conditional-stylesheets-vs-css-hacks-answer-neither/ -->\\t\\n  <!--[if lt IE 7 ]> <body class="ie6"> <![endif]-->\\n  <!--[if IE 7 ]>    <body class="ie7"> <![endif]-->\\n  <!--[if IE 8 ]>    <body class="ie8"> <![endif]-->\\n  <!--[if IE 9 ]>    <body class="ie9"> <![endif]-->\\n  <!--[if (gt IE 9)|!(IE)]><!--> <body> <!--<![endif]-->\\n    \\n    <div class="flash">\', escape=False)'
p136
sI74
S"response.write(response.flash or '')"
p137
sI75
S'response.write(\'</div> <!-- notification div -->\\n    \\n    <div id="container">\\t      \\t\\t      \\t\\n      \\n      <div id="wrapper">\\t\\t\\n\\t\\n\\t<div id="header"> <!-- header and login nav -->\\n\\t  \', escape=False)'
p138
sI76
S"response.write(' <!-- this is default header -->\\n\\t  <!--', escape=False)"
p139
sI77
S'try:'
p140
sI78
S"    response.write(auth.navbar(action=URL('default','user')))"
p141
sI79
S'except:pass'
p142
sI80
S'response.write(\'-->\\n\\t  <div id="logo"><!-- put your logo here --></div>\\n\\t  <div style="clear: both;"></div><!-- Clear the divs -->\\n\\t  \', escape=False)'
p143
sI81
S"response.write('\\t\\t\\n\\n          <h1>', escape=False)"
p144
sI82
S"response.write(response.title or 'response.title')"
p145
sI63
S"    left_sidebar_enabled = globals().get('left_sidebar_enabled',False)"
p146
ssg119
S'()'
p147
sg121
S'<module>'
p148
sasS'pyver'
p149
S'Python 2.6.6: /usr/bin/python'
p150
sS'session'
p151
(dp152
S'_formkey[default]'
p153
S"'f8fe7b33-c2a3-40a6-b239-4fd5110b303d'"
p154
sS'auth'
p155
S'None'
p156
ssS'etype'
p157
S"<type 'exceptions.NameError'>"
p158
sS'date'
p159
S'Tue Jan 25 22:12:06 2011'
p160
sS'response'
p161
(dp162
S'status'
p163
S'200'
p164
sg59
S'<cStringIO.StringO object>'
p165
sg76
S"<SimpleCookie: session_id_plugin_appreport='127.0.0.1-56d0272b-4d25-4fdb-bf2c-da2c92731bad'>"
p166
sS'_vars'
p167
S"{'form': <gluon.html.FORM object>}"
p168
sS'title'
p169
S"'Plugin appreport'"
p170
sS'session_file'
p171
S"<open file '/home/lucasdavila/central/ws/web2py/...6d0272b-4d25-4fdb-bf2c-da2c92731bad', mode 'rb+'>"
p172
sS'flash'
p173
S"''"
p174
sS'_custom_rollback'
p175
S'None'
p176
sS'session_id'
p177
S"'127.0.0.1-56d0272b-4d25-4fdb-bf2c-da2c92731bad'"
p178
sS'headers'
p179
S"<Storage {'Expires': 'Wed, 26 Jan 2011 00:12:06 ...he, must-revalidate, post-check=0, pre-check=0'}>"
p180
sS'meta'
p181
S"<Storage {'keywords': 'web2py, python, framework... 'Web2py Enterprise Framework', 'author': 'you'}>"
p182
sS'session_filename'
p183
S"'/home/lucasdavila/central/ws/web2py/src/web2pyde...ns/127.0.0.1-56d0272b-4d25-4fdb-bf2c-da2c92731bad'"
p184
sS'postprocessing'
p185
S'[]'
p186
sS'menu'
p187
S"[(<lazyT 'Home'>, False, <gluon.html.XML object>, []), (<lazyT 'Files'>, False, <gluon.html.XML object>, [('person', False, <gluon.html.XML object>)]), (<lazyT 'Repors'>, False, <gluon.html.XML object>, [('Simple', False, <gluon.html.XML object>), ('Custon', False, <gluon.html.XML object>), ('Complex', False, <gluon.html.XML object>)]), (<lazyT 'About'>, False, <gluon.html.XML object>, [])]"
p188
sS'_view_environment'
p189
S"{'A': <class 'gluon.html.A'>, 'Auth': <class 'gluon.tools.Auth'>, 'B': <class 'gluon.html.B'>, 'BEAUTIFY': <class 'gluon.html.BEAUTIFY'>, 'BODY': <class 'gluon.html.BODY'>, 'BR': <class 'gluon.html.BR'>, 'CENTER': <class 'gluon.html.CENTER'>, 'CLEANUP': <class 'gluon.validators.CLEANUP'>, 'CODE': <class 'gluon.html.CODE'>, 'CRYPT': <class 'gluon.validators.CRYPT'>, ...}"
p190
sS'subtitle'
p191
S"<lazyT 'customize me!'>"
p192
sS'session_id_name'
p193
S"'session_id_plugin_appreport'"
p194
sS'_custom_commit'
p195
S'None'
p196
sS'_caller'
p197
S'<function <lambda>>'
p198
sS'files'
p199
S'[<gluon.html.XML object>, <gluon.html.XML object>, <gluon.html.XML object>, <gluon.html.XML object>, <gluon.html.XML object>, <gluon.html.XML object>]'
p200
sS'view'
p201
S"'person/complex_report.html'"
p202
ssS'locals'
p203
(dp204
S'Service'
p205
S"<class 'gluon.tools.Service'>"
p206
sS'OBJECT'
p207
S"<class 'gluon.html.OBJECT'>"
p208
sS'_file'
p209
S'<gluon.html.XML object>'
p210
sS'SQLDB'
p211
S"<class 'gluon.dal.DAL'>"
p212
sg151
S"<Storage {'_formkey[default]': 'f8fe7b33-c2a3-40a6-b239-4fd5110b303d', 'auth': None}>"
p213
sS'LINK'
p214
S"<class 'gluon.html.LINK'>"
p215
sS'BR'
p216
S"<class 'gluon.html.BR'>"
p217
sS'local_import'
p218
S'<function <lambda>>'
p219
sS'OPTGROUP'
p220
S"<class 'gluon.html.OPTGROUP'>"
p221
sS'PRE'
p222
S"<class 'gluon.html.PRE'>"
p223
sS'IS_INT_IN_RANGE'
p224
S"<class 'gluon.validators.IS_INT_IN_RANGE'>"
p225
sS'left_sidebar_enabled'
p226
g81
sS'IS_LOWER'
p227
S"<class 'gluon.validators.IS_LOWER'>"
p228
sS'IS_STRONG'
p229
S"<class 'gluon.validators.IS_STRONG'>"
p230
sS'Recaptcha'
p231
S"<class 'gluon.tools.Recaptcha'>"
p232
sS'cache'
p233
S'<gluon.cache.Cache object>'
p234
sS'IS_IN_DB'
p235
S"<class 'gluon.validators.IS_IN_DB'>"
p236
sS'TAG'
p237
S'<gluon.html.__TAG__ object>'
p238
sS'_k'
p239
S'5'
sS'SQLField'
p240
S"<class 'gluon.dal.Field'>"
p241
sS'mail'
p242
S'<gluon.tools.Mail object>'
p243
sS'BODY'
p244
S"<class 'gluon.html.BODY'>"
p245
sS'IS_DATE_IN_RANGE'
p246
S"<class 'gluon.validators.IS_DATE_IN_RANGE'>"
p247
sS'TH'
p248
S"<class 'gluon.html.TH'>"
p249
sS'URL'
p250
S'<function _URL>'
p251
sS'db'
p252
S"<DAL {'auth_permission': <Table {'ALL': <gluon.d...0xa58a78c>}>, '_migrate': True, '_pool_size': 0}>"
p253
sS'auth'
p254
S'<gluon.tools.Auth object>'
p255
sS'P'
S"<class 'gluon.html.P'>"
p256
sS'TFOOT'
p257
S"<class 'gluon.html.TFOOT'>"
p258
sS'XHTML'
p259
S"<class 'gluon.html.XHTML'>"
p260
sS'ON'
p261
S'True'
p262
sS'OL'
p263
S"<class 'gluon.html.OL'>"
p264
sS'TEXTAREA'
p265
S"<class 'gluon.html.TEXTAREA'>"
p266
sS'MENU'
p267
S"<class 'gluon.html.MENU'>"
p268
sS'_file0'
p269
S"'/plugin_appreport/static/js/superfish.js'"
p270
sS'LOAD'
p271
S'<gluon.compileapp.LoadFactory object>'
p272
sS'CODE'
p273
S"<class 'gluon.html.CODE'>"
p274
sS'HTTP'
p275
S"<class 'gluon.http.HTTP'>"
p276
sS'HR'
p277
S"<class 'gluon.html.HR'>"
p278
sS'IS_DATETIME'
p279
S"<class 'gluon.validators.IS_DATETIME'>"
p280
sS'HEAD'
p281
S"<class 'gluon.html.HEAD'>"
p282
sS'LABEL'
p283
S"<class 'gluon.html.LABEL'>"
p284
sS'META'
p285
S"<class 'gluon.html.META'>"
p286
sS'plugins'
p287
S'<gluon.tools.PluginManager object>'
p288
sS'SELECT'
p289
S"<class 'gluon.html.SELECT'>"
p290
sS'CENTER'
p291
S"<class 'gluon.html.CENTER'>"
p292
sS'left_sidebar_style'
p293
S'\'style="display: none;"\''
p294
sS'Crud'
p295
S"<class 'gluon.tools.Crud'>"
p296
sS'Auth'
p297
S"<class 'gluon.tools.Auth'>"
p298
sS'__builtins__'
p299
S"{'ArithmeticError': <type 'exceptions.ArithmeticError'>, 'AssertionError': <type 'exceptions.AssertionError'>, 'AttributeError': <type 'exceptions.AttributeError'>, 'BaseException': <type 'exceptions.BaseException'>, 'BufferError': <type 'exceptions.BufferError'>, 'BytesWarning': <type 'exceptions.BytesWarning'>, 'DeprecationWarning': <type 'exceptions.DeprecationWarning'>, 'EOFError': <type 'exceptions.EOFError'>, 'Ellipsis': Ellipsis, 'EnvironmentError': <type 'exceptions.EnvironmentError'>, ...}"
p300
sS'BEAUTIFY'
p301
S"<class 'gluon.html.BEAUTIFY'>"
p302
sS'SQLFORM'
p303
S"<class 'gluon.sqlhtml.SQLFORM'>"
p304
sS'_item'
p305
S"'author'"
p306
sS'EM'
p307
S"<class 'gluon.html.EM'>"
p308
sS'redirect'
p309
S'<function redirect>'
p310
sS'FIELDSET'
p311
S"<class 'gluon.html.FIELDSET'>"
p312
sS'IS_EQUAL_TO'
p313
S"<class 'gluon.validators.IS_EQUAL_TO'>"
p314
sS'embed64'
p315
S'<function embed64>'
p316
sS'IS_LIST_OF'
p317
S"<class 'gluon.validators.IS_LIST_OF'>"
p318
sS'INPUT'
p319
S"<class 'gluon.html.INPUT'>"
p320
sS'EMBED'
p321
S"<class 'gluon.html.EMBED'>"
p322
sS'FORM'
p323
S"<class 'gluon.html.FORM'>"
p324
sS'CLEANUP'
p325
S"<class 'gluon.validators.CLEANUP'>"
p326
sS'H2'
p327
S"<class 'gluon.html.H2'>"
p328
sS'H3'
p329
S"<class 'gluon.html.H3'>"
p330
sS'H1'
p331
S"<class 'gluon.html.H1'>"
p332
sS'H6'
p333
S"<class 'gluon.html.H6'>"
p334
sS'H4'
p335
S"<class 'gluon.html.H4'>"
p336
sS'H5'
p337
S"<class 'gluon.html.H5'>"
p338
sS'UL'
p339
S"<class 'gluon.html.UL'>"
p340
sS'IS_UPPER'
p341
S"<class 'gluon.validators.IS_UPPER'>"
p342
sS'xmlescape'
p343
S'<function xmlescape>'
p344
sS'IS_TIME'
p345
S"<class 'gluon.validators.IS_TIME'>"
p346
sS'OPTION'
p347
S"<class 'gluon.html.OPTION'>"
p348
sS'TITLE'
p349
S"<class 'gluon.html.TITLE'>"
p350
sS'CRYPT'
p351
S"<class 'gluon.validators.CRYPT'>"
p352
sS'IS_EMPTY_OR'
p353
S"<class 'gluon.validators.IS_EMPTY_OR'>"
p354
sS'MARKMIN'
p355
S"<class 'gluon.html.MARKMIN'>"
p356
sS'service'
p357
S'<gluon.tools.Service object>'
p358
sS'SCRIPT'
p359
S"<class 'gluon.html.SCRIPT'>"
p360
sS'geocode'
p361
S'<function geocode>'
p362
sS'TABLE'
p363
S"<class 'gluon.html.TABLE'>"
p364
sS'IS_IPV4'
p365
S"<class 'gluon.validators.IS_IPV4'>"
p366
sS'IS_LENGTH'
p367
S"<class 'gluon.validators.IS_LENGTH'>"
p368
sS'XML'
p369
S"<class 'gluon.html.XML'>"
p370
sS'B'
S"<class 'gluon.html.B'>"
p371
sS'form'
p372
S'<gluon.html.FORM object>'
p373
sS'SQLTABLE'
p374
S"<class 'gluon.sqlhtml.SQLTABLE'>"
p375
sS'IS_MATCH'
p376
S"<class 'gluon.validators.IS_MATCH'>"
p377
sS'IS_ALPHANUMERIC'
p378
S"<class 'gluon.validators.IS_ALPHANUMERIC'>"
p379
sS'plugin_appreport_appreport'
p380
S"<module 'applications.plugin_appreport.modules.p...modules/plugin_appreport/appreport/__init__.pyc'>"
p381
sS'SPAN'
p382
S"<class 'gluon.html.SPAN'>"
p383
sS'IS_SLUG'
p384
S"<class 'gluon.validators.IS_SLUG'>"
p385
sS'PluginAppreport'
p386
S'<class __builtin__.PluginAppreport>'
p387
sS'fetch'
p388
S'<function fetch>'
p389
sS'IS_DATE'
p390
S"<class 'gluon.validators.IS_DATE'>"
p391
sS'IS_EMAIL'
p392
S"<class 'gluon.validators.IS_EMAIL'>"
p393
sS'IS_NOT_EMPTY'
p394
S"<class 'gluon.validators.IS_NOT_EMPTY'>"
p395
sg55
S"<Storage {'function': 'complex_report', 'body': ..., 22, 12, 6, 235255), 'post_vars': <Storage {}>}>"
p396
sS'TBODY'
p397
S"<class 'gluon.html.TBODY'>"
p398
sS'Field'
p399
S"<class 'gluon.dal.Field'>"
p400
sS'Mail'
p401
S"<class 'gluon.tools.Mail'>"
p402
sS'DIV'
p403
S"<class 'gluon.html.DIV'>"
p404
sS'LEGEND'
p405
S"<class 'gluon.html.LEGEND'>"
p406
sS'IMG'
p407
S"<class 'gluon.html.IMG'>"
p408
sS'DAL'
p409
S"<class 'gluon.dal.DAL'>"
p410
sS'TT'
p411
S"<class 'gluon.html.TT'>"
p412
sS'TR'
p413
S"<class 'gluon.html.TR'>"
p414
sS'LI'
p415
S"<class 'gluon.html.LI'>"
p416
sS'right_sidebar_enabled'
p417
g81
sS'IFRAME'
p418
S"<class 'gluon.html.IFRAME'>"
p419
sS'TD'
p420
S"<class 'gluon.html.TD'>"
p421
sS'PluginManager'
p422
S"<class 'gluon.tools.PluginManager'>"
p423
sS'IS_URL'
p424
S"<class 'gluon.validators.IS_URL'>"
p425
sS'A'
S"<class 'gluon.html.A'>"
p426
sS'STYLE'
p427
S"<class 'gluon.html.STYLE'>"
p428
sS'IS_DATETIME_IN_RANGE'
p429
S"<class 'gluon.validators.IS_DATETIME_IN_RANGE'>"
p430
sS'HTML'
p431
S"<class 'gluon.html.HTML'>"
p432
sS'IS_IMAGE'
p433
S"<class 'gluon.validators.IS_IMAGE'>"
p434
sS'I'
S"<class 'gluon.html.I'>"
p435
sS'crud'
p436
S'<gluon.tools.Crud object>'
p437
sS'right_sidebar_style'
p438
S'\'style="display: none;"\''
p439
sS'IS_NOT_IN_DB'
p440
S"<class 'gluon.validators.IS_NOT_IN_DB'>"
p441
sg161
S"<Storage {'status': 200, 'body': <cStringIO.Stri...object at 0xa7cbfec>], '_custom_rollback': None}>"
p442
sS'THEAD'
p443
S"<class 'gluon.html.THEAD'>"
p444
sS'IS_NULL_OR'
p445
S"<class 'gluon.validators.IS_EMPTY_OR'>"
p446
sS'prettydate'
p447
S'<function prettydate>'
p448
sS'IS_FLOAT_IN_RANGE'
p449
S"<class 'gluon.validators.IS_FLOAT_IN_RANGE'>"
p450
sS'IS_EXPR'
p451
S"<class 'gluon.validators.IS_EXPR'>"
p452
sS'T'
S'<gluon.languages.translator object>'
p453
sS'person'
p454
S"<Table {'ALL': <gluon.dal.SQLALL object at 0xa4a...c>, 'id': <gluon.dal.Field object at 0xa4aa4ac>}>"
p455
sS'IS_IN_SET'
p456
S"<class 'gluon.validators.IS_IN_SET'>"
p457
sS'plugin_appreport'
p458
S'<__builtin__.PluginAppreport instance>'
p459
sS'IS_UPLOAD_FILENAME'
p460
S"<class 'gluon.validators.IS_UPLOAD_FILENAME'>"
p461
sS'IS_DECIMAL_IN_RANGE'
p462
S"<class 'gluon.validators.IS_DECIMAL_IN_RANGE'>"
p463
sssS'traceback'
p464
S'Traceback (most recent call last):\n  File "/home/lucasdavila/central/ws/web2py/src/web2pydev/gluon/restricted.py", line 188, in restricted\n    exec ccode in environment\n  File "/home/lucasdavila/central/ws/web2py/src/web2pydev/applications/plugin_appreport/views/person/complex_report.html", line 72, in <module>\nNameError: name \'width_content\' is not defined\n'
p465
s.