(dp1
S'output'
p2
S''
sS'layer'
p3
S'/home/lucasdavila/central/ws/web2py/src/web2pydev/applications/plugin_appreport/models/plugin_appreport.py'
p4
sS'code'
p5
S'# coding: utf8\n\n#to start using plugin_appreport in a controller define the following action:   \n#para come\xc3\xa7ar a usar o plugin_appreport em um controlador defina o seguinte action:\n#\n#def report():\n#    form = plugin_appreport.REPORTFORM(db.table_name)\n#    \n#    if form.accepts(request.vars, session):\n#        return plugin_appreport.REPORT(table = db.table_name, title = \'List of ?\',filter = dict(form.vars))\n#            \n#    return dict(form = form)\n\n\n#reference to appreport module\nplugin_appreport_appreport = local_import(\'plugin_appreport.appreport\', reload = False)\n\nclass PluginAppreport:\n    \n    def REPORTFORM(self, table):\n        """wrapper to module >> appreport.form_report_web2py / class >> FormReportWeb2py / method >> get_form\n        """\n        dir(plugin_appreport_appreport)\n        return plugin_appreport_appreport.form_report.FormReportWeb2py(table = table).get_form()\n\n    #TODO add parametro html, se != None chamar classe html ?\n    def REPORT(self, table = None, filter = \'\', title = \'Report\', html = \'\', orientation = \'P\', unit = \'mm\', format = \'A4\'):\n        """wrapper to module >> appreport.report_html_db_web2py / class >> ReportHtmlDbWeb2py / method >> dumps\n\n        table = db.table    \n        filter = dict(form.vars) or {\'table_name.field_name\':\'value\', \'table_name.field2_name\':\'value2\'}\n        title = \'title of report\'\n        html = html custom if given the report will be generated as html passed, ignoring the table definition, example:\n            <html>\n                <body>\n                    <table>\n                        <thead>\n                            <tr>\n                                <th>Id</th>\n                                <th>Name</th>\n                                <th>Phone</th>\n                                <th>Email</th>\n                            </tr>\n                        </thead>\n                        <tbody>\n                            <tr>\n                                <td>1</td>\n                                <td>lucas davila</td>\n                                <td>123455</td>\n                                <td>lucassdvl@gmail.com</td>\n                            </tr>\n                        </tbody>\n                    </table>\n                </body>\n            </html>\n\n            \n        Orientation: \'P\' for portrait (retrato) or \'L\' for landscape (paisagem)\n    \n        """\n        \n        user_name = auth.user.first_name if auth.user is not None else \'\'\n        \n        if html.strip() != \'\':\n            report = plugin_appreport_appreport.report.ReportHtml(user_name = user_name,\n            title = title, html = html, orientation = orientation, unit = unit, format = format)\n        else:\n            report = plugin_appreport_appreport.report.ReportHtmlDbWeb2py(table = table, filter = filter, user_name = user_name, title = title, orientation = orientation, unit = unit, format = format)\n                    \n        pdf_builder = plugin_appreport_appreport.pdf_builder.PdfBuilderPyfpdf(report = report)\n            \n        return plugin_appreport_appreport.report_factory.ReportFactoryWeb2py(response = response, request = request, path_reports = \'private/plugin_appreport/reports\', pdf_builder = pdf_builder).dumps(report = report)\n            \nplugin_appreport = PluginAppreport()\n'
p6
sS'snapshot'
p7
(dp8
S'exception'
p9
(dp10
S'__hash__'
p11
S"<method-wrapper '__hash__' of exceptions.ImportError object>"
p12
sS'__setattr__'
p13
S"<method-wrapper '__setattr__' of exceptions.ImportError object>"
p14
sS'__reduce_ex__'
p15
S'<built-in method __reduce_ex__ of exceptions.ImportError object>'
p16
sS'__getslice__'
p17
S"<method-wrapper '__getslice__' of exceptions.ImportError object>"
p18
sS'__getitem__'
p19
S"<method-wrapper '__getitem__' of exceptions.ImportError object>"
p20
sS'__setstate__'
p21
S'<built-in method __setstate__ of exceptions.ImportError object>'
p22
sS'__reduce__'
p23
S'<built-in method __reduce__ of exceptions.ImportError object>'
p24
sS'__str__'
p25
S"<method-wrapper '__str__' of exceptions.ImportError object>"
p26
sS'__format__'
p27
S'<built-in method __format__ of exceptions.ImportError object>'
p28
sS'__getattribute__'
p29
S"<method-wrapper '__getattribute__' of exceptions.ImportError object>"
p30
sS'__class__'
p31
S"<type 'exceptions.ImportError'>"
p32
sS'__unicode__'
p33
S'<built-in method __unicode__ of exceptions.ImportError object>'
p34
sS'__delattr__'
p35
S"<method-wrapper '__delattr__' of exceptions.ImportError object>"
p36
sS'__subclasshook__'
p37
S'<built-in method __subclasshook__ of type object>'
p38
sS'__repr__'
p39
S"<method-wrapper '__repr__' of exceptions.ImportError object>"
p40
sS'args'
p41
S"('No module named sx.w3c.css',)"
p42
sS'__dict__'
p43
S'{}'
p44
sS'__sizeof__'
p45
S'<built-in method __sizeof__ of exceptions.ImportError object>'
p46
sS'__doc__'
p47
S'"Import can\'t find module, or can\'t find name in module."'
p48
sS'__init__'
p49
S"<method-wrapper '__init__' of exceptions.ImportError object>"
p50
sS'__new__'
p51
S'<built-in method __new__ of type object>'
p52
ssS'evalue'
p53
S'No module named sx.w3c.css'
p54
sS'request'
p55
(dp56
S'function'
p57
S"'complex_report'"
p58
sS'body'
p59
S'<cStringIO.StringO object>'
p60
sS'wsgi'
p61
S"<Storage {'start_response': <function <lambda> a...>, 'HTTP_ACCEPT_ENCODING': 'gzip,deflate,sdch'}}>"
p62
sS'extension'
p63
S"'html'"
p64
sS'vars'
p65
S'<Storage {}>'
p66
sS'cid'
p67
S'None'
p68
sS'url'
p69
S'<gluon.html.XML object>'
p70
sS'raw_extension'
p71
S'None'
p72
sg41
S'[]'
p73
sS'controller'
p74
S"'person'"
p75
sS'cookies'
p76
S"<SimpleCookie: session_id_admin='127.0.0.1-ab65c...'127.0.0.1-3fb54433-9a7e-4167-b09f-f0891a2471ca'>"
p77
sS'application'
p78
S"'plugin_appreport'"
p79
sS'ajax'
p80
S'False'
p81
sS'client'
p82
S"'127.0.0.1'"
p83
sS'env'
p84
S"<Storage {'wsgi_multithread': True, 'debugging':... 'wsgi_run_once': False, 'remote_port': '52975'}>"
p85
sS'raw_args'
p86
S'None'
p87
sS'get_vars'
p88
S'<Storage {}>'
p89
sS'folder'
p90
S"'/home/lucasdavila/central/ws/web2py/src/web2pydev/applications/plugin_appreport/'"
p91
sS'now'
p92
S'datetime.datetime(2011, 1, 26, 20, 56, 52, 229962)'
p93
sS'post_vars'
p94
S'<Storage {}>'
p95
ssS'frames'
p96
(lp97
(dp98
S'file'
p99
S'/home/lucasdavila/central/ws/web2py/src/web2pydev/gluon/restricted.py'
p100
sS'dump'
p101
(dp102
S'environment'
p103
S"{'A': <class 'gluon.html.A'>, 'Auth': <class 'gluon.tools.Auth'>, 'B': <class 'gluon.html.B'>, 'BEAUTIFY': <class 'gluon.html.BEAUTIFY'>, 'BODY': <class 'gluon.html.BODY'>, 'BR': <class 'gluon.html.BR'>, 'CENTER': <class 'gluon.html.CENTER'>, 'CLEANUP': <class 'gluon.validators.CLEANUP'>, 'CODE': <class 'gluon.html.CODE'>, 'CRYPT': <class 'gluon.validators.CRYPT'>, ...}"
p104
sS'ccode'
p105
S'<code object <module> at 0x8e4db60, file "/home/...n_appreport/models/plugin_appreport.py", line 16>'
p106
ssS'lnum'
p107
I188
sS'lines'
p108
(dp109
I192
S'        # XXX Show exception in Wing IDE if running in debugger'
p110
sI183
S'        if type(code) == types.CodeType:'
p111
sI184
S'            ccode = code'
p112
sI185
S'        else:'
p113
sI186
S'            ccode = compile2(code,layer)'
p114
sI187
S''
sI188
S'        exec ccode in environment'
p115
sI189
S'    except HTTP:'
p116
sI190
S'        raise'
p117
sI191
S'    except Exception:'
p118
ssS'call'
p119
S"(code='# coding: utf8\\n\\n#to start using plugin_appreport...           \\nplugin_appreport = PluginAppreport()\\n', environment={'A': <class 'gluon.html.A'>, 'Auth': <class 'gluon.tools.Auth'>, 'B': <class 'gluon.html.B'>, 'BEAUTIFY': <class 'gluon.html.BEAUTIFY'>, 'BODY': <class 'gluon.html.BODY'>, 'BR': <class 'gluon.html.BR'>, 'CENTER': <class 'gluon.html.CENTER'>, 'CLEANUP': <class 'gluon.validators.CLEANUP'>, 'CODE': <class 'gluon.html.CODE'>, 'CRYPT': <class 'gluon.validators.CRYPT'>, ...}, layer='/home/lucasdavila/central/ws/web2py/src/web2pyde...tions/plugin_appreport/models/plugin_appreport.py')"
p120
sS'func'
p121
S'restricted'
p122
sa(dp123
g99
S'/home/lucasdavila/central/ws/web2py/src/web2pydev/applications/plugin_appreport/models/plugin_appreport.py'
p124
sg101
(dp125
S'local_import'
p126
S'<function <lambda>>'
p127
sS'builtinreload'
p128
S'<built-in function reload>'
p129
sS'builtinFalse'
p130
g81
sS'plugin_appreport_appreport'
p131
S'undefined'
p132
ssg107
I16
sg108
(dp133
I11
S'#'
sI12
S'#    return dict(form = form)'
p134
sI13
S''
sI14
S''
sI15
S'#reference to appreport module'
p135
sI16
S"plugin_appreport_appreport = local_import('plugin_appreport.appreport', reload = False)"
p136
sI17
S''
sI18
S'class PluginAppreport:'
p137
sI19
S''
sI20
S'    def REPORTFORM(self, table):'
p138
ssg119
S'()'
p139
sg121
S'<module>'
p140
sa(dp141
g99
S'/home/lucasdavila/central/ws/web2py/src/web2pydev/gluon/compileapp.py'
p142
sg101
(dp143
S'global local_import_aux'
p144
S'<function local_import_aux>'
p145
sS'reload'
p146
g81
sS'app'
p147
S"'plugin_appreport'"
p148
sS'name'
p149
S"'plugin_appreport.appreport'"
p150
ssg107
I241
sg108
(dp151
I236
S"    environment['SQLFORM'] = SQLFORM"
p152
sI237
S"    environment['SQLTABLE'] = SQLTABLE"
p153
sI238
S"    environment['LOAD'] = LoadFactory(environment)"
p154
sI239
S"    environment['local_import'] = \\"
p155
sI240
S'        lambda name, reload=False, app=request.application:\\'
p156
sI241
S'        local_import_aux(name,reload,app)'
p157
sI242
S"    BaseAdapter.set_folder(os.path.join(request.folder, 'databases'))"
p158
sI243
S'    response._view_environment = copy.copy(environment)'
p159
sI244
S'    return environment'
p160
sI245
S''
ssg119
S"(name='plugin_appreport.appreport', reload=False, app='plugin_appreport')"
p161
sg121
S'<lambda>'
p162
sa(dp163
g99
S'/home/lucasdavila/central/ws/web2py/src/web2pydev/gluon/compileapp.py'
p164
sg101
(dp165
S'name'
p166
S"'applications.plugin_appreport.modules.plugin_appreport.appreport'"
p167
sS'module'
p168
g132
sS'builtin__import__'
p169
S'<built-in function __import__>'
p170
ssg107
I172
sg108
(dp171
I167
S'    This prevents conflict between applications and un-necessary execs.'
p172
sI168
S'    It can be used to import any module, including regular Python modules.'
p173
sI169
S'    """'
p174
sI170
S"    items = name.replace('/','.')"
p175
sI171
S'    name = "applications.%s.modules.%s" % (app, items)'
p176
sI172
S'    module = __import__(name)'
p177
sI173
S'    for item in name.split(".")[1:]:'
p178
sI174
S'        module = getattr(module, item)'
p179
sI175
S'    if force:'
p180
sI176
S'        reload(module)'
p181
ssg119
S"(name='applications.plugin_appreport.modules.plugin_appreport.appreport', force=False, app='plugin_appreport')"
p182
sg121
S'local_import_aux'
p183
sa(dp184
g99
S'/home/lucasdavila/central/ws/web2py/src/web2pydev/applications/plugin_appreport/modules/plugin_appreport/appreport/__init__.py'
p185
sg101
(dp186
S'pdf_builder'
p187
g132
ssg107
I2
sg108
(dp188
I1
S'import form_report'
p189
sI2
S'import pdf_builder'
p190
sI3
S'import report'
p191
sI4
S'import report_factory'
p192
ssg119
S'()'
p193
sg121
g140
sa(dp194
g99
S'/home/lucasdavila/central/ws/web2py/src/web2pydev/applications/plugin_appreport/modules/plugin_appreport/appreport/pdf_builder.py'
p195
sg101
(dp196
S'libs'
p197
g132
sS'pisa'
p198
g132
ssg107
I8
sg108
(dp199
I3
S'from libs.pyfpdf.fpdf import FPDF'
p200
sI4
S'from libs.pyfpdf.html import HTMLMixin'
p201
sI5
S''
sI6
S'#import libs.pisa.xhtml2pdf.ho.pisa as pisa'
p202
sI7
S''
sI8
S'import libs.pisa.xhtml2pdf.sx.pisa3.pisa as pisa'
p203
sI9
S''
sI10
S'"""'
p204
sI11
S"Copyright (c) 2010, 2011 Lucas D'Avila - email lucassdvl@gmail.com / twitter @lucadavila"
p205
sI12
S''
ssg119
S'()'
p206
sg121
g140
sa(dp207
g99
S'/home/lucasdavila/central/ws/web2py/src/web2pydev/applications/plugin_appreport/modules/plugin_appreport/appreport/libs/pisa/xhtml2pdf/sx/pisa3/__init__.py'
p208
sg101
(dp209
S'pisa'
p210
g132
ssg107
I41
sg108
(dp211
I36
S''
sI37
S'import logging'
p212
sI38
S'log = logging.getLogger(__name__)'
p213
sI39
S''
sI40
S'try:'
p214
sI41
S'    from pisa import *'
p215
sI42
S'    if not REPORTLAB22:'
p216
sI43
S'        raise ImportError, "Reportlab Toolkit Version 2.2 or higher needed"'
p217
sI44
S'except ImportError, e:'
p218
sI45
S'    import sys'
p219
ssg119
S'()'
p220
sg121
g140
sa(dp221
g99
S'/home/lucasdavila/central/ws/web2py/src/web2pydev/applications/plugin_appreport/modules/plugin_appreport/appreport/libs/pisa/xhtml2pdf/sx/pisa3/pisa.py'
p222
sg101
(dp223
S'pisa_document'
p224
g132
ssg107
I32
sg108
(dp225
I32
S'from pisa_document import *'
p226
sI33
S'from pisa_util import getFile'
p227
sI34
S'from pisa_default import DEFAULT_CSS'
p228
sI35
S''
sI36
S'import logging'
p229
sI27
S'import urllib2'
p230
sI28
S'import urlparse'
p231
sI29
S'import tempfile'
p232
sI30
S''
sI31
S'from pisa_version import *'
p233
ssg119
S'()'
p234
sg121
g140
sa(dp235
g99
S'/home/lucasdavila/central/ws/web2py/src/web2pydev/applications/plugin_appreport/modules/plugin_appreport/appreport/libs/pisa/xhtml2pdf/sx/pisa3/pisa_document.py'
p236
sg101
(dp237
S'pisa_context'
p238
g132
sS'pisaContext'
p239
g132
ssg107
I22
sg108
(dp240
I17
S''
sI18
S'__reversion__ = "$Revision: 20 $"'
p241
sI19
S'__author__    = "$Author: holtwick $"'
p242
sI20
S'__date__      = "$Date: 2007-10-09 12:58:24 +0200 (Di, 09 Okt 2007) $"'
p243
sI21
S''
sI22
S'from pisa_context import pisaContext'
p244
sI23
S'from pisa_parser import pisaParser'
p245
sI24
S'from pisa_util import *'
p246
sI25
S'from pisa_reportlab import *'
p247
sI26
S'from pisa_default import DEFAULT_CSS'
p248
ssg119
S'()'
p249
sg121
g140
sa(dp250
g99
S'/home/lucasdavila/central/ws/web2py/src/web2pydev/applications/plugin_appreport/modules/plugin_appreport/appreport/libs/pisa/xhtml2pdf/sx/pisa3/pisa_context.py'
p251
sg101
(dp252
S'pisa_parser'
p253
g132
ssg107
I25
sg108
(dp254
I20
S''
sI21
S'from pisa_util import *'
p255
sI22
S'from pisa_reportlab import *'
p256
sI23
S''
sI24
S'import pisa_default'
p257
sI25
S'import pisa_parser'
p258
sI26
S'import re'
p259
sI27
S'import urlparse'
p260
sI28
S'import types'
p261
sI29
S''
ssg119
S'()'
p262
sg121
g140
sa(dp263
g99
S'/home/lucasdavila/central/ws/web2py/src/web2pydev/applications/plugin_appreport/modules/plugin_appreport/appreport/libs/pisa/xhtml2pdf/sx/pisa3/pisa_parser.py'
p264
sg101
(dp265
S'sx'
p266
g132
sS'css'
p267
g132
ssg107
I38
sg108
(dp268
I33
S'from pisa_default import *'
p269
sI34
S'from pisa_util import *'
p270
sI35
S'from pisa_tags import *'
p271
sI36
S'from pisa_tables import *'
p272
sI37
S''
sI38
S'import sx.w3c.css as css'
p273
sI39
S'import sx.w3c.cssDOMElementInterface as cssDOMElementInterface'
p274
sI40
S''
sI41
S'import logging'
p275
sI42
S'log = logging.getLogger("ho.pisa")'
p276
ssg119
S'()'
p277
sg121
g140
sasS'pyver'
p278
S'Python 2.6.6: /usr/bin/python'
p279
sS'session'
p280
(dp281
S'_formkey[person/None]'
p282
S"'088ef73d-ff1e-44a6-8f8e-0f861f3cba55'"
p283
sS'_formkey[default]'
p284
S"'24fd221f-bab5-47ef-88fa-acca6090eea4'"
p285
sS'_formkey[favorite_music/None]'
p286
S"'5033c80c-21f4-4275-996e-dae96170d1db'"
p287
sS'auth'
p288
S'None'
p289
ssS'etype'
p290
S"<type 'exceptions.ImportError'>"
p291
sS'date'
p292
S'Wed Jan 26 20:56:52 2011'
p293
sS'response'
p294
(dp295
S'status'
p296
S'200'
p297
sg59
S'<cStringIO.StringO object>'
p298
sg76
S"<SimpleCookie: session_id_plugin_appreport='127.0.0.1-56d0272b-4d25-4fdb-bf2c-da2c92731bad'>"
p299
sS'_vars'
p300
S'None'
p301
sS'title'
p302
S"'Plugin appreport'"
p303
sS'session_file'
p304
S"<open file '/home/lucasdavila/central/ws/web2py/...6d0272b-4d25-4fdb-bf2c-da2c92731bad', mode 'rb+'>"
p305
sS'flash'
p306
S"''"
p307
sS'_custom_rollback'
p308
S'None'
p309
sS'session_id'
p310
S"'127.0.0.1-56d0272b-4d25-4fdb-bf2c-da2c92731bad'"
p311
sS'headers'
p312
S"<Storage {'Expires': 'Wed, 26 Jan 2011 22:56:52 ...he, must-revalidate, post-check=0, pre-check=0'}>"
p313
sS'meta'
p314
S"<Storage {'keywords': 'web2py, python, framework... 'Web2py Enterprise Framework', 'author': 'you'}>"
p315
sS'session_filename'
p316
S"'/home/lucasdavila/central/ws/web2py/src/web2pyde...ns/127.0.0.1-56d0272b-4d25-4fdb-bf2c-da2c92731bad'"
p317
sS'postprocessing'
p318
S'[]'
p319
sS'menu'
p320
S"[(<lazyT 'Home'>, False, <gluon.html.XML object>, []), (<lazyT 'Files'>, False, <gluon.html.XML object>, [('person', False, <gluon.html.XML object>)]), (<lazyT 'Repors'>, False, <gluon.html.XML object>, [('Simple', False, <gluon.html.XML object>), ('Custon', False, <gluon.html.XML object>), ('Complex', False, <gluon.html.XML object>)]), (<lazyT 'About'>, False, <gluon.html.XML object>, [])]"
p321
sS'_view_environment'
p322
S"{'A': <class 'gluon.html.A'>, 'B': <class 'gluon.html.B'>, 'BEAUTIFY': <class 'gluon.html.BEAUTIFY'>, 'BODY': <class 'gluon.html.BODY'>, 'BR': <class 'gluon.html.BR'>, 'CENTER': <class 'gluon.html.CENTER'>, 'CLEANUP': <class 'gluon.validators.CLEANUP'>, 'CODE': <class 'gluon.html.CODE'>, 'CRYPT': <class 'gluon.validators.CRYPT'>, 'DAL': <class 'gluon.dal.DAL'>, ...}"
p323
sS'subtitle'
p324
S"<lazyT 'customize me!'>"
p325
sS'session_id_name'
p326
S"'session_id_plugin_appreport'"
p327
sS'_custom_commit'
p328
S'None'
p329
sS'_caller'
p330
S'<function <lambda>>'
p331
sS'files'
p332
S'[]'
p333
sS'view'
p334
S"'person/complex_report.html'"
p335
ssS'locals'
p336
(dp337
S'getUID'
p338
S'None'
p339
sS'rl_getmtime'
p340
S'None'
p341
sS'yellow'
p342
S'None'
p343
sS'darkseagreen'
p344
S'None'
p345
sS'BaseDocTemplate'
p346
S'None'
p347
sS'DocWhile'
p348
S'None'
p349
sS'linearlyInterpolatedColor'
p350
S'None'
p351
sS'pisaTagPDFNEXTTEMPLATE'
p352
S'None'
p353
sS'base64'
p354
S'None'
p355
sS'pisaTagLI'
p356
S'None'
p357
sS'toColorOrNone'
p358
S'None'
p359
sS'crimson'
p360
S'None'
p361
sS'deprecation'
p362
S'None'
p363
sS'ParagraphAndImage'
p364
S'None'
p365
sS'pisaTagFONT'
p366
S'None'
p367
sS'cyan'
p368
S'None'
p369
sS'skyblue'
p370
S'None'
p371
sS'rgb_re'
p372
S'None'
p373
sS'darkgray'
p374
S'None'
p375
sS'lightpink'
p376
S'None'
p377
sS'math'
p378
S'None'
p379
sS'teal'
p380
S'None'
p381
sS'getSampleStyleSheet'
p382
S'None'
p383
sS'setColors'
p384
S'None'
p385
sS'lightgoldenrodyellow'
p386
S'None'
p387
sS'lavender'
p388
S'None'
p389
sS'khaki'
p390
S'None'
p391
sS'HRFlowable'
p392
S'None'
p393
sS'getImageData'
p394
S'None'
p395
sS'dimgrey'
p396
S'None'
p397
sS'html5lib'
p398
S'None'
p399
sS'blue'
p400
S'None'
p401
sS'getBorderStyle'
p402
S'None'
p403
sS'simpleSplit'
p404
S'None'
p405
sS'get_rl_tempdir'
p406
S'None'
p407
sS'pdfform'
p408
S'None'
p409
sS'treebuilders'
p410
S'None'
p411
sS'TraceInfo'
p412
S'None'
p413
sS'PML_PREFIX'
p414
S'None'
p415
sS'obj_R_G_B'
p416
S'None'
p417
sS'haveImages'
p418
S'None'
p419
sS'commasplit'
p420
S'None'
p421
sS'floralwhite'
p422
S'None'
p423
sS'StringIO'
p424
S'None'
p425
sS'INT'
p426
S'None'
p427
sS'recursiveImport'
p428
S'None'
p429
sS'ELEVENSEVENTEEN'
p430
S'None'
p431
sS'prev_this_next'
p432
S'None'
p433
sS'pprint'
p434
S'None'
p435
sS'greenyellow'
p436
S'None'
p437
sS'lightseagreen'
p438
S'None'
p439
sS'pisaTagPDFNEXTPAGE'
p440
S'None'
p441
sS'sienna'
p442
S'None'
p443
sS'Preformatted'
p444
S'None'
p445
sS'listDecimal'
p446
S'None'
p447
sS'lime'
p448
S'None'
p449
sS'fp_str'
p450
S'None'
p451
sS'royalblue'
p452
S'None'
p453
sS'peru'
p454
S'None'
p455
sS'ParagraphStyle'
p456
S'None'
p457
sS'findInPaths'
p458
S'None'
p459
sS'lemonchiffon'
p460
S'None'
p461
sS'__author__'
p462
S'None'
p463
sS'COLOR_BY_NAME'
p464
S'None'
p465
sS'darkgrey'
p466
S'None'
p467
sS'olive'
p468
S'None'
p469
sS'antiquewhite'
p470
S'None'
p471
sS'pisaTagPDFNEXTFRAME'
p472
S'None'
p473
sS'DebugMemo'
p474
S'None'
p475
sS'ReportLabBlue'
p476
S'None'
p477
sS'moccasin'
p478
S'None'
p479
sS'mm'
p480
S'None'
p481
sS'Frame'
p482
S'None'
p483
sS'PCMYKColor'
p484
S'None'
p485
sS'darkslateblue'
p486
S'None'
p487
sS'lightskyblue'
p488
S'None'
p489
sS'deeppink'
p490
S'None'
p491
sS'treewalkers'
p492
S'None'
p493
sS'brown'
p494
S'None'
p495
sS'dodgerblue'
p496
S'None'
p497
sS'pyPdf'
p498
S'None'
p499
sS'rgb2cmyk'
p500
S'None'
p501
sS'tan'
p502
S'None'
p503
sS'magenta'
p504
S'None'
p505
sS'string'
p506
S'None'
p507
sS'pink'
p508
S'None'
p509
sS'palevioletred'
p510
S'None'
p511
sS'ImageReader'
p512
S'None'
p513
sS'powderblue'
p514
S'None'
p515
sS'pisaTagSTYLE'
p516
S'None'
p517
sS'mediumblue'
p518
S'None'
p519
sS'pisaTagPDFFRAME'
p520
S'None'
p521
sS'midnightblue'
p522
S'None'
p523
sS'PmlTableOfContents'
p524
S'None'
p525
sS'Macro'
p526
S'None'
p527
sS'pisaTagTABLE'
p528
S'None'
p529
sS'lightslategray'
p530
S'None'
p531
sS'KeepInFrame'
p532
S'None'
p533
sS'PML_EXCEPTION'
p534
S'None'
p535
sS'types'
p536
S'None'
p537
sS'tomato'
p538
S'None'
p539
sS'cadetblue'
p540
S'None'
p541
sS'ErrorMsg'
p542
S'None'
p543
sS'PmlImage'
p544
S'None'
p545
sS'isSeqType'
p546
S'None'
p547
sS'linen'
p548
S'None'
p549
sS'green'
p550
S'None'
p551
sS'blueviolet'
p552
S'None'
p553
sS'peachpuff'
p554
S'None'
p555
sS'KeepTogether'
p556
S'None'
p557
sS'getSize'
p558
S'None'
p559
sS'slategrey'
p560
S'None'
p561
sS'FILE'
p562
S'None'
p563
sS'darkslategrey'
p564
S'None'
p565
sS'tempfile'
p566
S'None'
p567
sS'imp'
p568
S'None'
p569
sS'toColor'
p570
S'None'
p571
sS'fade'
p572
S'None'
p573
sS'orange'
p574
S'None'
p575
sS'pisaTagPDFTOC'
p576
S'None'
p577
sS'cornflower'
p578
S'None'
p579
sS'ABag'
p580
S'None'
p581
sS'PCMYKColorSep'
p582
S'None'
p583
sS'StyleSheet1'
p584
S'None'
p585
sS'silver'
p586
S'None'
p587
sS'DocPara'
p588
S'None'
p589
sS'httplib'
p590
S'None'
p591
sS'goldenrod'
p592
S'None'
p593
sS'darkviolet'
p594
S'None'
p595
sS'darkmagenta'
p596
S'None'
p597
sS'warnOnce'
p598
S'None'
p599
sS'getCoords'
p600
S'None'
p601
sS'find_locals'
p602
S'None'
p603
sS'CMYKColorSep'
p604
S'None'
p605
sS'navy'
p606
S'None'
p607
sS'reportlab'
p608
S'None'
p609
sS'navajowhite'
p610
S'None'
p611
sS'ReportLabBlueOLD'
p612
S'None'
p613
sS'pisaTagP'
p614
S'None'
p615
sS'plum'
p616
S'None'
p617
sS'darkkhaki'
p618
S'None'
p619
sS're'
p620
S'None'
p621
sS'cornsilk'
p622
S'None'
p623
sS'red'
p624
S'None'
p625
sS'DocAssert'
p626
S'None'
p627
sS'__builtins__'
p628
S"{'ArithmeticError': <type 'exceptions.ArithmeticError'>, 'AssertionError': <type 'exceptions.AssertionError'>, 'AttributeError': <type 'exceptions.AttributeError'>, 'BaseException': <type 'exceptions.BaseException'>, 'BufferError': <type 'exceptions.BufferError'>, 'BytesWarning': <type 'exceptions.BytesWarning'>, 'DeprecationWarning': <type 'exceptions.DeprecationWarning'>, 'EOFError': <type 'exceptions.EOFError'>, 'Ellipsis': Ellipsis, 'EnvironmentError': <type 'exceptions.EnvironmentError'>, ...}"
p629
sS'PmlKeepInFrame'
p630
S'None'
p631
sS'steelblue'
p632
S'None'
p633
sS'aliceblue'
p634
S'None'
p635
sS'CIDict'
p636
S'None'
p637
sS'lightslategrey'
p638
S'None'
p639
sS'gainsboro'
p640
S'None'
p641
sS'ReportLabGreen'
p642
S'None'
p643
sS'md5'
p644
S'None'
p645
sS'markfilename'
p646
S'None'
p647
sS'logging'
p648
S'None'
p649
sS'commajoin'
p650
S'None'
p651
sS'TableStyle'
p652
S'None'
p653
sS'import_zlib'
p654
S'None'
p655
sS'lightgrey'
p656
S'None'
p657
sS'pisaFileObject'
p658
S'None'
p659
sS'burlywood'
p660
S'None'
p661
sS'darksalmon'
p662
S'None'
p663
sS'pisaTagOL'
p664
S'None'
p665
sS'rl_listdir'
p666
S'None'
p667
sS'pisaTagPDFFONT'
p668
S'None'
p669
sS'fileName2Utf8'
p670
S'None'
p671
sS'DocAssign'
p672
S'None'
p673
sS'mistyrose'
p674
S'None'
p675
sS'TableOfContents'
p676
S'None'
p677
sS'dpi96'
p678
S'None'
p679
sS'orangered'
p680
S'None'
p681
sS'rl_get_module'
p682
S'None'
p683
sS'slategray'
p684
S'None'
p685
sS'toList'
p686
S'None'
p687
sS'ReportLabFidRed'
p688
S'None'
p689
sS'lightcyan'
p690
S'None'
p691
sS'PropertySet'
p692
S'None'
p693
sS'getArgvDict'
p694
S'None'
p695
sS'white'
p696
S'None'
p697
sS'fidblue'
p698
S'None'
p699
sS'LETTER'
p700
S'None'
p701
sS'copy'
p702
S'None'
p703
sS'hotpink'
p704
S'None'
p705
sS'limegreen'
p706
S'None'
p707
sS'grey'
p708
S'None'
p709
sS'pisaTagPDFTEMPLATE'
p710
S'None'
p711
sS'Spacer'
p712
S'None'
p713
sS'getFile'
p714
S'None'
p715
sS'open_for_read'
p716
S'None'
p717
sS'PmlPageTemplate'
p718
S'None'
p719
sS'getPos'
p720
S'None'
p721
sS'lightgreen'
p722
S'None'
p723
sS'rosybrown'
p724
S'None'
p725
sS'whitesmoke'
p726
S'None'
p727
sS'lightblue'
p728
S'None'
p729
sS'pisaTagSUP'
p730
S'None'
p731
sS'POS'
p732
S'None'
p733
sS'ReportLabBluePCMYK'
p734
S'None'
p735
sS'pisaTagSUB'
p736
S'None'
p737
sS'STRING'
p738
S'None'
p739
sS'warnings'
p740
S'None'
p741
sS'salmon'
p742
S'None'
p743
sS'LEGAL'
p744
S'None'
p745
sS'pdfmetrics'
p746
S'None'
p747
sS'oldlace'
p748
S'None'
p749
sS'letter'
p750
S'None'
p751
sS'rl_isfile'
p752
S'None'
p753
sS'annotateException'
p754
S'None'
p755
sS'TA_RIGHT'
p756
S'None'
p757
sS'gold'
p758
S'None'
p759
sS'isSourceDistro'
p760
S'None'
p761
sS'MUST'
p762
S'None'
p763
sS'xml'
p764
S'None'
p765
sS'pisaTagH1'
p766
S'None'
p767
sS'rl_isdir'
p768
S'None'
p769
sS'pisaTagUL'
p770
S'None'
p771
sS'papayawhip'
p772
S'None'
p773
sS'black'
p774
S'None'
p775
sS'CMYKColor'
p776
S'None'
p777
sS'CallerMacro'
p778
S'None'
p779
sS'PTOContainer'
p780
S'None'
p781
sS'getColor'
p782
S'None'
p783
sS'__file__'
p784
S'None'
p785
sS'Paragraph'
p786
S'None'
p787
sS'recursiveSetAttr'
p788
S'None'
p789
sS'pisaTagA'
p790
S'None'
p791
sS'gray'
p792
S'None'
p793
sS'darkturquoise'
p794
S'None'
p795
sS'Whiter'
p796
S'None'
p797
sS'__date__'
p798
S'None'
p799
sS'getBox'
p800
S'None'
p801
sS'__reversion__'
p802
S'None'
p803
sS'darkcyan'
p804
S'None'
p805
sS'PmlRightPageBreak'
p806
S'None'
p807
sS'thistle'
p808
S'None'
p809
sS'violet'
p810
S'None'
p811
sS'portrait'
p812
S'None'
p813
sS'DEFAULT_CSS'
p814
S'None'
p815
sS'honeydew'
p816
S'None'
p817
sS'cornflowerblue'
p818
S'None'
p819
sS'darkblue'
p820
S'None'
p821
sS'urllib'
p822
S'None'
p823
sS'mediumpurple'
p824
S'None'
p825
sS'escapeTextOnce'
p826
S'None'
p827
sS'TAGS'
p828
S'None'
p829
sS'UseUpSpace'
p830
S'None'
p831
sS'darkred'
p832
S'None'
p833
sS'PML_PAGESIZES'
p834
S'None'
p835
sS'mediumturquoise'
p836
S'None'
p837
sS'purple'
p838
S'None'
p839
sS'aqua'
p840
S'None'
p841
sS'itertools'
p842
S'None'
p843
sS'FrameBreak'
p844
S'None'
p845
sS'lightsteelblue'
p846
S'None'
p847
sS'ColorType'
p848
S'None'
p849
sS'pisaTagPDFSPACER'
p850
S'None'
p851
sS'cm'
p852
S'None'
p853
sS'Flowable'
p854
S'None'
p855
sS'olivedrab'
p856
S'None'
p857
sS'TableData'
p858
S'None'
p859
sS'palegreen'
p860
S'None'
p861
sS'getStringIO'
p862
S'None'
p863
sS'seashell'
p864
S'None'
p865
sS'pisaTagPDFBARCODE'
p866
S'None'
p867
sS'aquamarine'
p868
S'None'
p869
sg47
S'None'
p870
sS'cmyk2rgb'
p871
S'None'
p872
sS'NextPageTemplate'
p873
S'None'
p874
sS'getBool'
p875
S'None'
p876
sS'lawngreen'
p877
S'None'
p878
sS'maroon'
p879
S'None'
p880
sS'isFileSystemDistro'
p881
S'None'
p882
sS'mintcream'
p883
S'None'
p884
sS'PmlBaseDoc'
p885
S'None'
p886
sS'cleanBlockQuotedText'
p887
S'None'
p888
sS'escapeOnce'
p889
S'None'
p890
sS'PmlParagraph'
p891
S'None'
p892
sS'saddlebrown'
p893
S'None'
p894
sS'fidlightblue'
p895
S'None'
p896
sS'TA_CENTER'
p897
S'None'
p898
sS'STRATEGIES'
p899
S'None'
p900
sS'HexColor'
p901
S'None'
p902
sS'darkgoldenrod'
p903
S'None'
p904
sS'sandybrown'
p905
S'None'
p906
sS'shutil'
p907
S'None'
p908
sS'LineStyle'
p909
S'None'
p910
sS'MIN_FONT_SIZE'
p911
S'None'
p912
sS'Standard39'
p913
S'None'
p914
sS'mediumseagreen'
p915
S'None'
p916
sS'darkorange'
p917
S'None'
p918
sS'__package__'
p919
S'None'
p920
sS'inch'
p921
S'None'
p922
sS'GAE'
p923
S'None'
p924
sS'palegoldenrod'
p925
S'None'
p926
sS'open_for_read_by_name'
p927
S'None'
p928
sS'PmlInput'
p929
S'None'
p930
sS'pisaTagIMG'
p931
S'None'
p932
sS'sys'
p933
S'None'
p934
sS'ReportLabFidBlue'
p935
S'None'
p936
sS'lightyellow'
p937
S'None'
p938
sS'lavenderblush'
p939
S'None'
p940
sS'urlparse'
p941
S'None'
p942
sS'SlowPageBreak'
p943
S'None'
p944
sS'Table'
p945
S'None'
p946
sS'BOX'
p947
S'None'
p948
sS'indigo'
p949
S'None'
p950
sS'firebrick'
p951
S'None'
p952
sS'indianred'
p953
S'None'
p954
sS'snow'
p955
S'None'
p956
sS'darkolivegreen'
p957
S'None'
p958
sS'pisaTempFile'
p959
S'None'
p960
sS'pisaTagTITLE'
p961
S'None'
p962
sS'PILImage'
p963
S'None'
p964
sS'CondPageBreak'
p965
S'None'
p966
sS'color2bw'
p967
S'None'
p968
sS'mediumorchid'
p969
S'None'
p970
sS'PmlParagraphAndImage'
p971
S'None'
p972
sS'transparent'
p973
S'None'
p974
sS'FmtSelfDict'
p975
S'None'
p976
sS'chartreuse'
p977
S'None'
p978
sS'MAX_IMAGE_RATIO'
p979
S'None'
p980
sS'springgreen'
p981
S'None'
p982
sS'TA_LEFT'
p983
S'None'
p984
sS'lightsalmon'
p985
S'None'
p986
sS'DocExec'
p987
S'None'
p988
sS'renderPM'
p989
S'None'
p990
sS'turquoise'
p991
S'None'
p992
sS'pisaTagBODY'
p993
S'None'
p994
sS'darkgreen'
p995
S'None'
p996
sS'pisaTagBR'
p997
S'None'
p998
sS'getAlign'
p999
S'None'
p1000
sS'PmlMaxHeightMixIn'
p1001
S'None'
p1002
sS'ArgvDictValue'
p1003
S'None'
p1004
sS'B4'
p1005
S'None'
p1006
sS'B5'
p1007
S'None'
p1008
sS'B6'
p1009
S'None'
p1010
sS'B0'
p1011
S'None'
p1012
sS'B1'
p1013
S'None'
p1014
sS'B2'
p1015
S'None'
p1016
sS'B3'
p1017
S'None'
p1018
sS'fidred'
p1019
S'None'
p1020
sS'colorDistance'
p1021
S'None'
p1022
sS'yellowgreen'
p1023
S'None'
p1024
sS'flatten'
p1025
S'None'
p1026
sS'FONT'
p1027
S'None'
p1028
sS'PML_ERROR'
p1029
S'None'
p1030
sS'orchid'
p1031
S'None'
p1032
sS'getAllNamedColors'
p1033
S'None'
p1034
sS'COLOR'
p1035
S'None'
p1036
sS'ReportLabLightBlue'
p1037
S'None'
p1038
sS'legal'
p1039
S'None'
p1040
sS'XBox'
p1041
S'None'
p1042
sS'PmlLeftPageBreak'
p1043
S'None'
p1044
sS'Blacker'
p1045
S'None'
p1046
sS'mediumslateblue'
p1047
S'None'
p1048
sS'bisque'
p1049
S'None'
p1050
sS'cgi'
p1051
S'None'
p1052
sS'Node'
p1053
S'None'
p1054
sS'renderSVG'
p1055
S'None'
p1056
sS'wheat'
p1057
S'None'
p1058
sS'deepskyblue'
p1059
S'None'
p1060
sS'urllib2'
p1061
S'None'
p1062
sS'__name__'
p1063
S'None'
p1064
sS'SIZE'
p1065
S'None'
p1066
sS'pisaTagPDFPAGENUMBER'
p1067
S'None'
p1068
sS'hue2rgb'
p1069
S'None'
p1070
sS'hsl2rgb'
p1071
S'None'
p1072
sS'DocIf'
p1073
S'None'
p1074
sS'Image'
p1075
S'None'
p1076
sS'pisaTagTR'
p1077
S'None'
p1078
sS'open_and_read'
p1079
S'None'
p1080
sS'beige'
p1081
S'None'
p1082
sS'pisaTagTH'
p1083
S'None'
p1084
sS'azure'
p1085
S'None'
p1086
sS'pisaTagTD'
p1087
S'None'
p1088
sS'os'
p1089
S'None'
p1090
sS'REPORTLAB22'
p1091
S'None'
p1092
sS'DEFAULT_FONT'
p1093
S'None'
p1094
sS'mediumvioletred'
p1095
S'None'
p1096
sS'pisaTagMETA'
p1097
S'None'
p1098
sS'FailOnWrap'
p1099
S'None'
p1100
sS'coral'
p1101
S'None'
p1102
sS'lightcoral'
p1103
S'None'
p1104
sS'PmlImageReader'
p1105
S'None'
p1106
sS'cmykDistance'
p1107
S'None'
p1108
sS'pisaTag'
p1109
S'None'
p1110
sS'log'
p1111
S'None'
p1112
sS'cssParse'
p1113
S'None'
p1114
sS'mediumspringgreen'
p1115
S'None'
p1116
sS'fuchsia'
p1117
S'None'
p1118
sS'blanchedalmond'
p1119
S'None'
p1120
sS'PageTemplate'
p1121
S'None'
p1122
sS'pisaTagHR'
p1123
S'None'
p1124
sS'ivory'
p1125
S'None'
p1126
sS'PML_WARNING'
p1127
S'None'
p1128
sS'forestgreen'
p1129
S'None'
p1130
sS'pisaTagH2'
p1131
S'None'
p1132
sS'pisaTagH3'
p1133
S'None'
p1134
sS'getHyphenater'
p1135
S'None'
p1136
sS'pisaTagH6'
p1137
S'None'
p1138
sS'pisaTagH4'
p1139
S'None'
p1140
sS'pisaTagH5'
p1141
S'None'
p1142
sS'BOOL'
p1143
S'None'
p1144
sS'darkslategray'
p1145
S'None'
p1146
sS'tt2ps'
p1147
S'None'
p1148
sS'recursiveGetAttr'
p1149
S'None'
p1150
sS'pisa_reportlab'
p1151
S'None'
p1152
sS'ReportLabLightGreen'
p1153
S'None'
p1154
sS'describe'
p1155
S'None'
p1156
sS'open_and_readlines'
p1157
S'None'
p1158
sS'slateblue'
p1159
S'None'
p1160
sS'landscape'
p1161
S'None'
p1162
sS'dimgray'
p1163
S'None'
p1164
sS'seagreen'
p1165
S'None'
p1166
sS'LazyImageReader'
p1167
S'None'
p1168
sS'A1'
p1169
S'None'
p1170
sS'A0'
p1171
S'None'
p1172
sS'A3'
p1173
S'None'
p1174
sS'A2'
p1175
S'None'
p1176
sS'A5'
p1177
S'None'
p1178
sS'A4'
p1179
S'None'
p1180
sS'pisaTagDIV'
p1181
S'None'
p1182
sS'A6'
p1183
S'None'
p1184
sS'elevenSeventeen'
p1185
S'None'
p1186
sS'paleturquoise'
p1187
S'None'
p1188
sS'mimetypes'
p1189
S'None'
p1190
sS'darkorchid'
p1191
S'None'
p1192
sS'ghostwhite'
p1193
S'None'
p1194
sS'inputstream'
p1195
S'None'
p1196
sS'PageBreak'
p1197
S'None'
p1198
sS'rl_glob'
p1199
S'None'
p1200
sS'chocolate'
p1201
S'None'
p1202
sS'Color'
p1203
S'None'
p1204
sS'TA_JUSTIFY'
p1205
S'None'
p1206
sS'get_rl_tempfile'
p1207
S'None'
p1208
sS'PmlTable'
p1209
S'None'
p1210
sS'mediumaquamarine'
p1211
S'None'
p1212
sS'time'
p1213
S'None'
p1214
sS'isCompactDistro'
p1215
S'None'
p1216
sS'serializer'
p1217
S'None'
p1218
sssS'traceback'
p1219
S'Traceback (most recent call last):\n  File "/home/lucasdavila/central/ws/web2py/src/web2pydev/gluon/restricted.py", line 188, in restricted\n    exec ccode in environment\n  File "/home/lucasdavila/central/ws/web2py/src/web2pydev/applications/plugin_appreport/models/plugin_appreport.py", line 16, in <module>\n    plugin_appreport_appreport = local_import(\'plugin_appreport.appreport\', reload = False)\n  File "/home/lucasdavila/central/ws/web2py/src/web2pydev/gluon/compileapp.py", line 241, in <lambda>\n    local_import_aux(name,reload,app)\n  File "/home/lucasdavila/central/ws/web2py/src/web2pydev/gluon/compileapp.py", line 172, in local_import_aux\n    module = __import__(name)\n  File "applications/plugin_appreport/modules/plugin_appreport/appreport/__init__.py", line 2, in <module>\n    import pdf_builder\n  File "applications/plugin_appreport/modules/plugin_appreport/appreport/pdf_builder.py", line 8, in <module>\n    import libs.pisa.xhtml2pdf.sx.pisa3.pisa as pisa\n  File "applications/plugin_appreport/modules/plugin_appreport/appreport/libs/pisa/xhtml2pdf/sx/pisa3/__init__.py", line 41, in <module>\n    from pisa import *\n  File "applications/plugin_appreport/modules/plugin_appreport/appreport/libs/pisa/xhtml2pdf/sx/pisa3/pisa.py", line 32, in <module>\n    from pisa_document import *\n  File "applications/plugin_appreport/modules/plugin_appreport/appreport/libs/pisa/xhtml2pdf/sx/pisa3/pisa_document.py", line 22, in <module>\n    from pisa_context import pisaContext\n  File "applications/plugin_appreport/modules/plugin_appreport/appreport/libs/pisa/xhtml2pdf/sx/pisa3/pisa_context.py", line 25, in <module>\n    import pisa_parser\n  File "applications/plugin_appreport/modules/plugin_appreport/appreport/libs/pisa/xhtml2pdf/sx/pisa3/pisa_parser.py", line 38, in <module>\n    import sx.w3c.css as css\nImportError: No module named sx.w3c.css\n'
p1220
s.