(dp1
S'output'
p2
S''
sS'layer'
p3
S'/home/lucasdavila/central/ws/web2py/src/web2pydev/applications/plugin_appreport/controllers/person.py'
p4
sS'code'
p5
S'# coding: utf8\n\ndef create():\n\n    form = crud.create(person)\n    form_favs = crud.create(favorite_music)\n    persons = db().select(db.person.ALL, db.favorite_music.ALL, left=favorite_music.on(person.id == favorite_music.person))\n\n    return dict(form = form, form_favs = form_favs, persons = persons)\n    \n\ndef simple_report():\n\n    form = plugin_appreport.REPORTFORM(table=person)\n\n    if form.accepts(request.vars, session):\n        return plugin_appreport.REPORT(table = person, title = \'List of persons\', filter = dict(form.vars))\n\n    return dict(form = form)\n    \ndef report_persons():\n\n    return dict(persons = db(person.id > 0).select())\n\n\ndef complex_report():\n\n    form = plugin_appreport.REPORTFORM(table=person)\n\n    if form.accepts(request.vars, session):\n        persons = db(form.prep_filter(filter = dict(form.vars))).select()\n        html = response.render(\'person/report_persons.html\', dict(persons = persons))\n        return plugin_appreport.REPORT(html = html, title = \'List of persons\')\n\n    return dict(form = form)\n\n\n\ndef custom_report():\n    \n    html = """<html>\n                <body>\n                    <table>\n                        <thead>\n                            <tr>\n                                <th>Author</th>\n                                <th>Email</th>\n                                <th>Twitter</th>\n                            </tr>\n                        </thead>\n                        <tbody>\n                            <tr>\n                                <td>Lucas Davila</td>\n                                <td>lucassdvl@gmail.com</td>\n                                <td>@lucadavila</td>                                \n                            </tr>\n                        </tbody>\n                    </table>\n                </body>\n            </html>\n    """\n    return plugin_appreport.REPORT(html = html, title = \'my custom report using the plugin appreport\')\n\nresponse._vars=response._caller(complex_report)\n'
p6
sS'snapshot'
p7
(dp8
S'exception'
p9
(dp10
S'__hash__'
p11
S"<method-wrapper '__hash__' of exceptions.NameError object>"
p12
sS'__setattr__'
p13
S"<method-wrapper '__setattr__' of exceptions.NameError object>"
p14
sS'__reduce_ex__'
p15
S'<built-in method __reduce_ex__ of exceptions.NameError object>'
p16
sS'__getslice__'
p17
S"<method-wrapper '__getslice__' of exceptions.NameError object>"
p18
sS'__getitem__'
p19
S"<method-wrapper '__getitem__' of exceptions.NameError object>"
p20
sS'__setstate__'
p21
S'<built-in method __setstate__ of exceptions.NameError object>'
p22
sS'__reduce__'
p23
S'<built-in method __reduce__ of exceptions.NameError object>'
p24
sS'__str__'
p25
S"<method-wrapper '__str__' of exceptions.NameError object>"
p26
sS'__format__'
p27
S'<built-in method __format__ of exceptions.NameError object>'
p28
sS'__getattribute__'
p29
S"<method-wrapper '__getattribute__' of exceptions.NameError object>"
p30
sS'__class__'
p31
S"<type 'exceptions.NameError'>"
p32
sS'__unicode__'
p33
S'<built-in method __unicode__ of exceptions.NameError object>'
p34
sS'__delattr__'
p35
S"<method-wrapper '__delattr__' of exceptions.NameError object>"
p36
sS'__subclasshook__'
p37
S'<built-in method __subclasshook__ of type object>'
p38
sS'__repr__'
p39
S"<method-wrapper '__repr__' of exceptions.NameError object>"
p40
sS'args'
p41
S'("global name \'dest\' is not defined",)'
p42
sS'__dict__'
p43
S'{}'
p44
sS'__sizeof__'
p45
S'<built-in method __sizeof__ of exceptions.NameError object>'
p46
sS'__doc__'
p47
S"'Name not found globally.'"
p48
sS'__init__'
p49
S"<method-wrapper '__init__' of exceptions.NameError object>"
p50
sS'__new__'
p51
S'<built-in method __new__ of type object>'
p52
ssS'evalue'
p53
S"global name 'dest' is not defined"
p54
sS'request'
p55
(dp56
S'function'
p57
S"'complex_report'"
p58
sS'body'
p59
S"<open file '<fdopen>', mode 'w+b'>"
p60
sS'wsgi'
p61
S"<Storage {'start_response': <function <lambda> a...>, 'HTTP_ACCEPT_ENCODING': 'gzip,deflate,sdch'}}>"
p62
sS'extension'
p63
S"'html'"
p64
sS'vars'
p65
S"<Storage {'person.email': '', 'person.phone': ''...8e5', '_formname': 'default', 'person.name': ''}>"
p66
sS'cid'
p67
S'None'
p68
sS'url'
p69
S'<gluon.html.XML object>'
p70
sS'raw_extension'
p71
S'None'
p72
sg41
S'[]'
p73
sS'controller'
p74
S"'person'"
p75
sS'cookies'
p76
S"<SimpleCookie: session_id_admin='127.0.0.1-ab65c...'127.0.0.1-3fb54433-9a7e-4167-b09f-f0891a2471ca'>"
p77
sS'application'
p78
S"'plugin_appreport'"
p79
sS'ajax'
p80
S'False'
p81
sS'client'
p82
S"'127.0.0.1'"
p83
sS'env'
p84
S"<Storage {'content_length': '670', 'debugging': ...undaryjux7voDSAC4uesQu', 'remote_port': '50847'}>"
p85
sS'raw_args'
p86
S'None'
p87
sS'get_vars'
p88
S'<Storage {}>'
p89
sS'folder'
p90
S"'/home/lucasdavila/central/ws/web2py/src/web2pydev/applications/plugin_appreport/'"
p91
sS'now'
p92
S'datetime.datetime(2011, 1, 26, 21, 11, 16, 494834)'
p93
sS'post_vars'
p94
S"<Storage {'person.email': '', 'person.phone': ''...8e5', '_formname': 'default', 'person.name': ''}>"
p95
ssS'frames'
p96
(lp97
(dp98
S'file'
p99
S'/home/lucasdavila/central/ws/web2py/src/web2pydev/gluon/restricted.py'
p100
sS'dump'
p101
(dp102
S'environment'
p103
S"{'A': <class 'gluon.html.A'>, 'Auth': <class 'gluon.tools.Auth'>, 'B': <class 'gluon.html.B'>, 'BEAUTIFY': <class 'gluon.html.BEAUTIFY'>, 'BODY': <class 'gluon.html.BODY'>, 'BR': <class 'gluon.html.BR'>, 'CENTER': <class 'gluon.html.CENTER'>, 'CLEANUP': <class 'gluon.validators.CLEANUP'>, 'CODE': <class 'gluon.html.CODE'>, 'CRYPT': <class 'gluon.validators.CRYPT'>, ...}"
p104
sS'ccode'
p105
S'<code object <module> at 0xaa50f50, file "/home/.../plugin_appreport/controllers/person.py", line 3>'
p106
ssS'lnum'
p107
I188
sS'lines'
p108
(dp109
I192
S'        # XXX Show exception in Wing IDE if running in debugger'
p110
sI183
S'        if type(code) == types.CodeType:'
p111
sI184
S'            ccode = code'
p112
sI185
S'        else:'
p113
sI186
S'            ccode = compile2(code,layer)'
p114
sI187
S''
sI188
S'        exec ccode in environment'
p115
sI189
S'    except HTTP:'
p116
sI190
S'        raise'
p117
sI191
S'    except Exception:'
p118
ssS'call'
p119
S"(code='# coding: utf8\\n\\ndef create():\\n\\n    form = crud.c...\\nresponse._vars=response._caller(complex_report)\\n', environment={'A': <class 'gluon.html.A'>, 'Auth': <class 'gluon.tools.Auth'>, 'B': <class 'gluon.html.B'>, 'BEAUTIFY': <class 'gluon.html.BEAUTIFY'>, 'BODY': <class 'gluon.html.BODY'>, 'BR': <class 'gluon.html.BR'>, 'CENTER': <class 'gluon.html.CENTER'>, 'CLEANUP': <class 'gluon.validators.CLEANUP'>, 'CODE': <class 'gluon.html.CODE'>, 'CRYPT': <class 'gluon.validators.CRYPT'>, ...}, layer='/home/lucasdavila/central/ws/web2py/src/web2pyde...plications/plugin_appreport/controllers/person.py')"
p120
sS'func'
p121
S'restricted'
p122
sa(dp123
g99
S'/home/lucasdavila/central/ws/web2py/src/web2pydev/applications/plugin_appreport/controllers/person.py'
p124
sg101
(dp125
sg107
I64
sg108
(dp126
I53
S'                                <td>Lucas Davila</td>'
p127
sI54
S'                                <td>lucassdvl@gmail.com</td>'
p128
sI55
S'                                <td>@lucadavila</td>'
p129
sI56
S'                            </tr>'
p130
sI57
S'                        </tbody>'
p131
sI58
S'                    </table>'
p132
sI59
S'                </body>'
p133
sI60
S'            </html>'
p134
sI61
S'    """'
p135
sI62
S"    return plugin_appreport.REPORT(html = html, title = 'my custom report using the plugin appreport')"
p136
ssg119
S'()'
p137
sg121
S'<module>'
p138
sa(dp139
g99
S'/home/lucasdavila/central/ws/web2py/src/web2pydev/gluon/globals.py'
p140
sg101
(dp141
S'self'
p142
S'undefined'
p143
sS'f'
S'<function complex_report>'
p144
ssg107
I95
sg108
(dp145
I96
S'        self._view_environment = None'
p146
sI97
S'        self._custom_commit = None'
p147
sI98
S'        self._custom_rollback = None'
p148
sI99
S''
sI90
S"        self.flash = ''           # used by the default view layout"
p149
sI91
S'        self.meta = Storage()     # used by web2py_ajax.html'
p150
sI92
S'        self.menu = []            # used by the default view layout'
p151
sI93
S'        self.files = []           # used by web2py_ajax.html'
p152
sI94
S'        self._vars = None'
p153
sI95
S'        self._caller = lambda f: f()'
p154
ssg119
S'(f=<function complex_report>)'
p155
sg121
S'<lambda>'
p156
sa(dp157
g99
S'/home/lucasdavila/central/ws/web2py/src/web2pydev/applications/plugin_appreport/controllers/person.py'
p158
sg101
(dp159
S'title'
p160
g143
sS'html'
p161
S"'\\n<html>\\n<body>\\n<h2>Report of persons</h2>\\n\\n<tabl...\\n        \\n    </tbody>\\n</table>\\n</body>\\n</html>\\n\\n'"
p162
sS'plugin_appreport.REPORT'
p163
S'<bound method PluginAppreport.REPORT of <__builtin__.PluginAppreport instance>>'
p164
sS'global plugin_appreport'
p165
S'<__builtin__.PluginAppreport instance>'
p166
ssg107
I33
sg108
(dp167
I32
S"        html = response.render('person/report_persons.html', dict(persons = persons))"
p168
sI33
S"        return plugin_appreport.REPORT(html = html, title = 'List of persons')"
p169
sI34
S''
sI35
S'    return dict(form = form)'
p170
sI36
S''
sI37
S''
sI28
S'    form = plugin_appreport.REPORTFORM(table=person)'
p171
sI29
S''
sI30
S'    if form.accepts(request.vars, session):'
p172
sI31
S'        persons = db(form.prep_filter(filter = dict(form.vars))).select()'
p173
ssg119
S'()'
p174
sg121
S'complex_report'
p175
sa(dp176
g99
S'/home/lucasdavila/central/ws/web2py/src/web2pydev/applications/plugin_appreport/models/plugin_appreport.py'
p177
sg101
(dp178
S'plugin_appreport_appreport.report_factory'
p179
S"<module 'applications.plugin_appreport.modules.p...s/plugin_appreport/appreport/report_factory.pyc'>"
p180
sS'global request'
p181
S"<Storage {'function': 'complex_report', 'body': ...5', '_formname': 'default', 'person.name': ''}>}>"
p182
sS'pdf_builder'
p183
S'<applications.plugin_appreport.modules.plugin_ap...rt.appreport.pdf_builder.PdfBuilderPisa instance>'
p184
sS').dumps'
p185
g143
sS'global plugin_appreport_appreport'
p186
S"<module 'applications.plugin_appreport.modules.p...modules/plugin_appreport/appreport/__init__.pyc'>"
p187
sS'global response'
p188
S"<Storage {'status': 200, 'body': <cStringIO.Stri...t': None, 'files': [], '_custom_rollback': None}>"
p189
sS'plugin_appreport_appreport.report_factory.ReportFactoryWeb2py'
p190
S'<class applications.plugin_appreport.modules.plu...ort.appreport.report_factory.ReportFactoryWeb2py>'
p191
sS'report'
p192
S'<applications.plugin_appreport.modules.plugin_appreport.appreport.report.ReportHtml instance>'
p193
sS'path_reports'
p194
g143
ssg107
I78
sg108
(dp195
I71
S''
sI72
S''
sI73
S"        if engine == 'pisa':"
p196
sI74
S'            pdf_builder = plugin_appreport_appreport.pdf_builder.PdfBuilderPisa(report = report)'
p197
sI75
S'        else:'
p198
sI76
S'            pdf_builder = plugin_appreport_appreport.pdf_builder.PdfBuilderPyfpdf(report = report)'
p199
sI77
S''
sI78
S"        return plugin_appreport_appreport.report_factory.ReportFactoryWeb2py(response = response, request = request, path_reports = 'private/plugin_appreport/reports', pdf_builder = pdf_builder).dumps(report = report)"
p200
sI79
S''
sI80
S'plugin_appreport = PluginAppreport()'
p201
ssg119
S"(self=<__builtin__.PluginAppreport instance>, table=None, filter='', title='List of persons', html='\\n<html>\\n<body>\\n<h2>Report of persons</h2>\\n\\n<tabl...\\n        \\n    </tbody>\\n</table>\\n</body>\\n</html>\\n\\n', engine='pisa', orientation='P', unit='mm', format='A4')"
p202
sg121
S'REPORT'
p203
sa(dp204
g99
S'/home/lucasdavila/central/ws/web2py/src/web2pydev/applications/plugin_appreport/modules/plugin_appreport/appreport/report_factory.py'
p205
sg101
(dp206
S'self.pdf_builder.output'
p207
S'<bound method PdfBuilderPisa.output of <applicat...t.appreport.pdf_builder.PdfBuilderPisa instance>>'
p208
sS'self'
p209
S'<applications.plugin_appreport.modules.plugin_ap...port.report_factory.ReportFactoryWeb2py instance>'
p210
sS'self.pdf_builder'
p211
S'<applications.plugin_appreport.modules.plugin_ap...rt.appreport.pdf_builder.PdfBuilderPisa instance>'
p212
sS'path_report'
p213
S"'private/plugin_appreport/reports/report_anonymous_2011-01-26_21-11-16_494834.pdf'"
p214
ssg107
I72
sg108
(dp215
I67
S'        """'
p216
sI68
S''
sI69
S'        if not os.path.exists(self.path_reports): os.makedirs(self.path_reports)'
p217
sI70
S'        path_report = self._get_path_report(report = report)'
p218
sI71
S''
sI72
S"        self.pdf_builder.output(path_report, 'F')"
p219
sI73
S''
sI74
S'        file_report = open(path_report,"rb").read()'
p220
sI75
S'        print path_report'
p221
sI76
S"#        if path_report.endswith('.pdf'):"
p222
ssg119
S'(self=<applications.plugin_appreport.modules.plugin_ap...port.report_factory.ReportFactoryWeb2py instance>, report=<applications.plugin_appreport.modules.plugin_appreport.appreport.report.ReportHtml instance>)'
p223
sg121
S'dumps'
p224
sa(dp225
g99
S'/home/lucasdavila/central/ws/web2py/src/web2pydev/applications/plugin_appreport/modules/plugin_appreport/appreport/pdf_builder.py'
p226
sg101
(dp227
S'dest'
p228
g143
sS'global pisa'
p229
S"<module 'applications.plugin_appreport.modules.p...appreport/libs/pisa/xhtml2pdf/sx/pisa3/pisa.pyc'>"
p230
sS'pisa.startViewer'
p231
S'<function startViewer>'
p232
ssg107
I86
sg108
(dp233
I77
S'        pdf = pisa.CreatePDF(self.report.get_html(), file(path_report, "wb"))'
p234
sI78
S''
sI79
S'        #uncomment this for debug'
p235
sI80
S'        #if pdf.err:'
p236
sI81
S'        #    print "Errors on output report > %"%pdf.err'
p237
sI82
S''
sI83
S'        #else:'
p238
sI84
S'        #    pisa.startViewer(dest)'
p239
sI85
S''
sI86
S'        pisa.startViewer(dest)'
p240
ssg119
S"(self=<applications.plugin_appreport.modules.plugin_ap...rt.appreport.pdf_builder.PdfBuilderPisa instance>, path_report='private/plugin_appreport/reports/report_anonymous_2011-01-26_21-11-16_494834.pdf', *args=('F',))"
p241
sg121
g2
sasS'pyver'
p242
S'Python 2.6.6: /usr/bin/python'
p243
sS'session'
p244
(dp245
S'_formkey[person/None]'
p246
S"'088ef73d-ff1e-44a6-8f8e-0f861f3cba55'"
p247
sS'_formkey[default]'
p248
S"'086ab37f-e45c-40cf-a4b6-2db785d04cb7'"
p249
sS'auth'
p250
S'None'
p251
sS'_formkey[favorite_music/None]'
p252
S"'5033c80c-21f4-4275-996e-dae96170d1db'"
p253
ssS'etype'
p254
S"<type 'exceptions.NameError'>"
p255
sS'date'
p256
S'Wed Jan 26 21:11:16 2011'
p257
sS'response'
p258
(dp259
S'status'
p260
S'200'
p261
sg59
S'<cStringIO.StringO object>'
p262
sg76
S"<SimpleCookie: session_id_plugin_appreport='127.0.0.1-56d0272b-4d25-4fdb-bf2c-da2c92731bad'>"
p263
sS'_vars'
p264
S"{'persons': <gluon.dal.Rows object>}"
p265
sS'title'
p266
S"'Plugin appreport'"
p267
sS'session_file'
p268
S"<open file '/home/lucasdavila/central/ws/web2py/...6d0272b-4d25-4fdb-bf2c-da2c92731bad', mode 'rb+'>"
p269
sS'flash'
p270
S"''"
p271
sS'_custom_rollback'
p272
S'None'
p273
sS'session_id'
p274
S"'127.0.0.1-56d0272b-4d25-4fdb-bf2c-da2c92731bad'"
p275
sS'headers'
p276
S"<Storage {'Expires': 'Wed, 26 Jan 2011 23:11:16 ...he, must-revalidate, post-check=0, pre-check=0'}>"
p277
sS'meta'
p278
S"<Storage {'keywords': 'web2py, python, framework... 'Web2py Enterprise Framework', 'author': 'you'}>"
p279
sS'session_filename'
p280
S"'/home/lucasdavila/central/ws/web2py/src/web2pyde...ns/127.0.0.1-56d0272b-4d25-4fdb-bf2c-da2c92731bad'"
p281
sS'postprocessing'
p282
S'[]'
p283
sS'menu'
p284
S"[(<lazyT 'Home'>, False, <gluon.html.XML object>, []), (<lazyT 'Files'>, False, <gluon.html.XML object>, [('person', False, <gluon.html.XML object>)]), (<lazyT 'Repors'>, False, <gluon.html.XML object>, [('Simple', False, <gluon.html.XML object>), ('Custon', False, <gluon.html.XML object>), ('Complex', False, <gluon.html.XML object>)]), (<lazyT 'About'>, False, <gluon.html.XML object>, [])]"
p285
sS'_view_environment'
p286
S"{'A': <class 'gluon.html.A'>, 'Auth': <class 'gluon.tools.Auth'>, 'B': <class 'gluon.html.B'>, 'BEAUTIFY': <class 'gluon.html.BEAUTIFY'>, 'BODY': <class 'gluon.html.BODY'>, 'BR': <class 'gluon.html.BR'>, 'CENTER': <class 'gluon.html.CENTER'>, 'CLEANUP': <class 'gluon.validators.CLEANUP'>, 'CODE': <class 'gluon.html.CODE'>, 'CRYPT': <class 'gluon.validators.CRYPT'>, ...}"
p287
sS'subtitle'
p288
S"<lazyT 'customize me!'>"
p289
sS'session_id_name'
p290
S"'session_id_plugin_appreport'"
p291
sS'_custom_commit'
p292
S'None'
p293
sS'_caller'
p294
S'<function <lambda>>'
p295
sS'files'
p296
S'[]'
p297
sS'view'
p298
S"'person/complex_report.html'"
p299
ssS'locals'
p300
(dp301
S'pdf'
p302
S'<applications.plugin_appreport.modules.plugin_ap...l2pdf.sx.pisa3.pisa_context.pisaContext instance>'
p303
sS'self'
p304
S'<applications.plugin_appreport.modules.plugin_ap...rt.appreport.pdf_builder.PdfBuilderPisa instance>'
p305
sg41
S"('F',)"
p306
sS'path_report'
p307
S"'private/plugin_appreport/reports/report_anonymous_2011-01-26_21-11-16_494834.pdf'"
p308
sssS'traceback'
p309
S'Traceback (most recent call last):\n  File "/home/lucasdavila/central/ws/web2py/src/web2pydev/gluon/restricted.py", line 188, in restricted\n    exec ccode in environment\n  File "/home/lucasdavila/central/ws/web2py/src/web2pydev/applications/plugin_appreport/controllers/person.py", line 64, in <module>\n  File "/home/lucasdavila/central/ws/web2py/src/web2pydev/gluon/globals.py", line 95, in <lambda>\n    self._caller = lambda f: f()\n  File "/home/lucasdavila/central/ws/web2py/src/web2pydev/applications/plugin_appreport/controllers/person.py", line 33, in complex_report\n    return plugin_appreport.REPORT(html = html, title = \'List of persons\')\n  File "/home/lucasdavila/central/ws/web2py/src/web2pydev/applications/plugin_appreport/models/plugin_appreport.py", line 78, in REPORT\n    return plugin_appreport_appreport.report_factory.ReportFactoryWeb2py(response = response, request = request, path_reports = \'private/plugin_appreport/reports\', pdf_builder = pdf_builder).dumps(report = report)\n  File "applications/plugin_appreport/modules/plugin_appreport/appreport/report_factory.py", line 72, in dumps\n    self.pdf_builder.output(path_report, \'F\')\n  File "applications/plugin_appreport/modules/plugin_appreport/appreport/pdf_builder.py", line 86, in output\n    pisa.startViewer(dest)\nNameError: global name \'dest\' is not defined\n'
p310
s.