(dp1
S'output'
p2
S''
sS'layer'
p3
S'/home/lucasdavila/central/ws/web2py/src/web2pydev/applications/plugin_appreport/controllers/person.py'
p4
sS'code'
p5
S'# coding: utf8\n\ndef create():\n\n    form = crud.create(person)\n    persons = crud.select(person, person.id > 0)\n\n    return dict(form = form, persons = persons)\n    \n\ndef simple_report():\n\n    form = plugin_appreport.REPORTFORM(table=person)\n\n    if form.accepts(request.vars, session):\n        return plugin_appreport.REPORT(table = person, title = \'List of persons\', filter = dict(form.vars))\n\n    return dict(form = form)\n    \ndef complex_report():\n\n    form = plugin_appreport.REPORTFORM(table=person)\n\n    if form.accepts(request.vars, session):\n\n        persons = db(person.id > 0).select() #TODO pegar form.get_query ?\n        html = response.render(\'person/report_person.html\', vars=dict(persons=persons))\n        return plugin_appreport.REPORT(html = html, title = \'List of persons\')\n\n    return dict(form = form)\n\n\n\ndef custom_report():\n    \n    html = """<html>\n                <body>\n                    <table>\n                        <thead>\n                            <tr>\n                                <th>Author</th>\n                                <th>Email</th>\n                                <th>Twitter</th>\n                            </tr>\n                        </thead>\n                        <tbody>\n                            <tr>\n                                <td>Lucas Davila</td>\n                                <td>lucassdvl@gmail.com</td>\n                                <td>@lucadavila</td>                                \n                            </tr>\n                        </tbody>\n                    </table>\n                </body>\n            </html>\n    """\n    return plugin_appreport.REPORT(html = html, title = \'my custom report using the plugin appreport\')\n\nresponse._vars=response._caller(complex_report)\n'
p6
sS'snapshot'
p7
(dp8
S'exception'
p9
(dp10
S'__hash__'
p11
S"<method-wrapper '__hash__' of exceptions.AttributeError object>"
p12
sS'__setattr__'
p13
S"<method-wrapper '__setattr__' of exceptions.AttributeError object>"
p14
sS'__reduce_ex__'
p15
S'<built-in method __reduce_ex__ of exceptions.AttributeError object>'
p16
sS'__getslice__'
p17
S"<method-wrapper '__getslice__' of exceptions.AttributeError object>"
p18
sS'__getitem__'
p19
S"<method-wrapper '__getitem__' of exceptions.AttributeError object>"
p20
sS'__setstate__'
p21
S'<built-in method __setstate__ of exceptions.AttributeError object>'
p22
sS'__reduce__'
p23
S'<built-in method __reduce__ of exceptions.AttributeError object>'
p24
sS'__str__'
p25
S"<method-wrapper '__str__' of exceptions.AttributeError object>"
p26
sS'__format__'
p27
S'<built-in method __format__ of exceptions.AttributeError object>'
p28
sS'__getattribute__'
p29
S"<method-wrapper '__getattribute__' of exceptions.AttributeError object>"
p30
sS'__class__'
p31
S"<type 'exceptions.AttributeError'>"
p32
sS'__unicode__'
p33
S'<built-in method __unicode__ of exceptions.AttributeError object>'
p34
sS'__delattr__'
p35
S"<method-wrapper '__delattr__' of exceptions.AttributeError object>"
p36
sS'__subclasshook__'
p37
S'<built-in method __subclasshook__ of type object>'
p38
sS'__repr__'
p39
S"<method-wrapper '__repr__' of exceptions.AttributeError object>"
p40
sS'args'
p41
S'("\'NoneType\' object has no attribute \'get\'",)'
p42
sS'__dict__'
p43
S'{}'
p44
sS'__sizeof__'
p45
S'<built-in method __sizeof__ of exceptions.AttributeError object>'
p46
sS'__doc__'
p47
S"'Attribute not found.'"
p48
sS'__init__'
p49
S"<method-wrapper '__init__' of exceptions.AttributeError object>"
p50
sS'__new__'
p51
S'<built-in method __new__ of type object>'
p52
ssS'evalue'
p53
S"'NoneType' object has no attribute 'get'"
p54
sS'request'
p55
(dp56
S'function'
p57
S"'complex_report'"
p58
sS'body'
p59
S"<open file '<fdopen>', mode 'w+b'>"
p60
sS'wsgi'
p61
S"<Storage {'start_response': <function <lambda> a...>, 'HTTP_ACCEPT_ENCODING': 'gzip,deflate,sdch'}}>"
p62
sS'extension'
p63
S"'html'"
p64
sS'vars'
p65
S"<Storage {'person.email': '', 'person.phone': ''...883', '_formname': 'default', 'person.name': ''}>"
p66
sS'cid'
p67
S'None'
p68
sS'url'
p69
S'<gluon.html.XML object>'
p70
sS'raw_extension'
p71
S'None'
p72
sg41
S'[]'
p73
sS'controller'
p74
S"'person'"
p75
sS'cookies'
p76
S"<SimpleCookie: session_id_admin='127.0.0.1-ab65c...'127.0.0.1-3fb54433-9a7e-4167-b09f-f0891a2471ca'>"
p77
sS'application'
p78
S"'plugin_appreport'"
p79
sS'ajax'
p80
S'False'
p81
sS'client'
p82
S"'127.0.0.1'"
p83
sS'env'
p84
S"<Storage {'content_length': '670', 'debugging': ...undaryQbC5I4Q9GOwwwVZZ', 'remote_port': '54318'}>"
p85
sS'raw_args'
p86
S'None'
p87
sS'get_vars'
p88
S'<Storage {}>'
p89
sS'folder'
p90
S"'/home/lucasdavila/central/ws/web2py/src/web2pydev/applications/plugin_appreport/'"
p91
sS'now'
p92
S'datetime.datetime(2011, 1, 25, 22, 36, 5, 233880)'
p93
sS'post_vars'
p94
S"<Storage {'person.email': '', 'person.phone': ''...883', '_formname': 'default', 'person.name': ''}>"
p95
ssS'frames'
p96
(lp97
(dp98
S'file'
p99
S'/home/lucasdavila/central/ws/web2py/src/web2pydev/gluon/restricted.py'
p100
sS'dump'
p101
(dp102
S'environment'
p103
S"{'A': <class 'gluon.html.A'>, 'Auth': <class 'gluon.tools.Auth'>, 'B': <class 'gluon.html.B'>, 'BEAUTIFY': <class 'gluon.html.BEAUTIFY'>, 'BODY': <class 'gluon.html.BODY'>, 'BR': <class 'gluon.html.BR'>, 'CENTER': <class 'gluon.html.CENTER'>, 'CLEANUP': <class 'gluon.validators.CLEANUP'>, 'CODE': <class 'gluon.html.CODE'>, 'CRYPT': <class 'gluon.validators.CRYPT'>, ...}"
p104
sS'ccode'
p105
S'<code object <module> at 0x94bba40, file "/home/.../plugin_appreport/controllers/person.py", line 3>'
p106
ssS'lnum'
p107
I188
sS'lines'
p108
(dp109
I192
S'        # XXX Show exception in Wing IDE if running in debugger'
p110
sI183
S'        if type(code) == types.CodeType:'
p111
sI184
S'            ccode = code'
p112
sI185
S'        else:'
p113
sI186
S'            ccode = compile2(code,layer)'
p114
sI187
S''
sI188
S'        exec ccode in environment'
p115
sI189
S'    except HTTP:'
p116
sI190
S'        raise'
p117
sI191
S'    except Exception:'
p118
ssS'call'
p119
S"(code='# coding: utf8\\n\\ndef create():\\n\\n    form = crud.c...\\nresponse._vars=response._caller(complex_report)\\n', environment={'A': <class 'gluon.html.A'>, 'Auth': <class 'gluon.tools.Auth'>, 'B': <class 'gluon.html.B'>, 'BEAUTIFY': <class 'gluon.html.BEAUTIFY'>, 'BODY': <class 'gluon.html.BODY'>, 'BR': <class 'gluon.html.BR'>, 'CENTER': <class 'gluon.html.CENTER'>, 'CLEANUP': <class 'gluon.validators.CLEANUP'>, 'CODE': <class 'gluon.html.CODE'>, 'CRYPT': <class 'gluon.validators.CRYPT'>, ...}, layer='/home/lucasdavila/central/ws/web2py/src/web2pyde...plications/plugin_appreport/controllers/person.py')"
p120
sS'func'
p121
S'restricted'
p122
sa(dp123
g99
S'/home/lucasdavila/central/ws/web2py/src/web2pydev/applications/plugin_appreport/controllers/person.py'
p124
sg101
(dp125
sg107
I59
sg108
(dp126
I48
S'                                <td>Lucas Davila</td>'
p127
sI49
S'                                <td>lucassdvl@gmail.com</td>'
p128
sI50
S'                                <td>@lucadavila</td>'
p129
sI51
S'                            </tr>'
p130
sI52
S'                        </tbody>'
p131
sI53
S'                    </table>'
p132
sI54
S'                </body>'
p133
sI55
S'            </html>'
p134
sI56
S'    """'
p135
sI57
S"    return plugin_appreport.REPORT(html = html, title = 'my custom report using the plugin appreport')"
p136
ssg119
S'()'
p137
sg121
S'<module>'
p138
sa(dp139
g99
S'/home/lucasdavila/central/ws/web2py/src/web2pydev/gluon/globals.py'
p140
sg101
(dp141
S'self'
p142
S'undefined'
p143
sS'f'
S'<function complex_report>'
p144
ssg107
I95
sg108
(dp145
I96
S'        self._view_environment = None'
p146
sI97
S'        self._custom_commit = None'
p147
sI98
S'        self._custom_rollback = None'
p148
sI99
S''
sI90
S"        self.flash = ''           # used by the default view layout"
p149
sI91
S'        self.meta = Storage()     # used by web2py_ajax.html'
p150
sI92
S'        self.menu = []            # used by the default view layout'
p151
sI93
S'        self.files = []           # used by web2py_ajax.html'
p152
sI94
S'        self._vars = None'
p153
sI95
S'        self._caller = lambda f: f()'
p154
ssg119
S'(f=<function complex_report>)'
p155
sg121
S'<lambda>'
p156
sa(dp157
g99
S'/home/lucasdavila/central/ws/web2py/src/web2pydev/applications/plugin_appreport/controllers/person.py'
p158
sg101
(dp159
S'title'
p160
g143
sS'html'
p161
S'\'<!DOCTYPE html>\\n<html lang="pt-br" class="no-js"...t\\\');\\n\\t   </script>\\n\\t   -->    \\n  </body>\\n</html>\\n\''
p162
sS'plugin_appreport.REPORT'
p163
S'<bound method PluginAppreport.REPORT of <__builtin__.PluginAppreport instance>>'
p164
sS'global plugin_appreport'
p165
S'<__builtin__.PluginAppreport instance>'
p166
ssg107
I28
sg108
(dp167
I32
S''
sI23
S''
sI24
S'    if form.accepts(request.vars, session):'
p168
sI25
S''
sI26
S'        persons = db(person.id > 0).select() #TODO pegar form.get_query ?'
p169
sI27
S"        html = response.render('person/report_person.html', vars=dict(persons=persons))"
p170
sI28
S"        return plugin_appreport.REPORT(html = html, title = 'List of persons')"
p171
sI29
S''
sI30
S'    return dict(form = form)'
p172
sI31
S''
ssg119
S'()'
p173
sg121
S'complex_report'
p174
sa(dp175
g99
S'/home/lucasdavila/central/ws/web2py/src/web2pydev/applications/plugin_appreport/models/plugin_appreport.py'
p176
sg101
(dp177
S'plugin_appreport_appreport.pdf_builder.PdfBuilderPyfpdf'
p178
S'<class applications.plugin_appreport.modules.plu...appreport.appreport.pdf_builder.PdfBuilderPyfpdf>'
p179
sS'report'
p180
S'<applications.plugin_appreport.modules.plugin_appreport.appreport.report.ReportHtml instance>'
p181
sS'global plugin_appreport_appreport'
p182
S"<module 'applications.plugin_appreport.modules.p...modules/plugin_appreport/appreport/__init__.pyc'>"
p183
sS'pdf_builder'
p184
g143
sS'plugin_appreport_appreport.pdf_builder'
p185
S"<module 'applications.plugin_appreport.modules.p...ules/plugin_appreport/appreport/pdf_builder.pyc'>"
p186
ssg107
I70
sg108
(dp187
I65
S'            report = plugin_appreport_appreport.report.ReportHtml(user_name = user_name,'
p188
sI66
S'            title = title, html = html, orientation = orientation, unit = unit, format = format)'
p189
sI67
S'        else:'
p190
sI68
S'            report = plugin_appreport_appreport.report.ReportHtmlDbWeb2py(table = table, filter = filter, user_name = user_name, title = title, orientation = orientation, unit = unit, format = format)'
p191
sI69
S''
sI70
S'        pdf_builder = plugin_appreport_appreport.pdf_builder.PdfBuilderPyfpdf(report = report)'
p192
sI71
S''
sI72
S"        return plugin_appreport_appreport.report_factory.ReportFactoryWeb2py(response = response, request = request, path_reports = 'private/plugin_appreport/reports', pdf_builder = pdf_builder).dumps(report = report)"
p193
sI73
S''
sI74
S'plugin_appreport = PluginAppreport()'
p194
ssg119
S'(self=<__builtin__.PluginAppreport instance>, table=None, filter=\'\', title=\'List of persons\', html=\'<!DOCTYPE html>\\n<html lang="pt-br" class="no-js"...t\\\');\\n\\t   </script>\\n\\t   -->    \\n  </body>\\n</html>\\n\', orientation=\'P\', unit=\'mm\', format=\'A4\')'
p195
sg121
S'REPORT'
p196
sa(dp197
g99
S'/home/lucasdavila/central/ws/web2py/src/web2pydev/applications/plugin_appreport/modules/plugin_appreport/appreport/pdf_builder.py'
p198
sg101
(dp199
S'self.report.get_html'
p200
S'<bound method ReportHtml.get_html of <applicatio..._appreport.appreport.report.ReportHtml instance>>'
p201
sS'self.report'
p202
S'<applications.plugin_appreport.modules.plugin_appreport.appreport.report.ReportHtml instance>'
p203
sS'self'
p204
S'<applications.plugin_appreport.modules.plugin_ap....appreport.pdf_builder.PdfBuilderPyfpdf instance>'
p205
sS'self.write_html'
p206
S'<bound method PdfBuilderPyfpdf.write_html of <ap...appreport.pdf_builder.PdfBuilderPyfpdf instance>>'
p207
ssg107
I42
sg108
(dp208
I37
S''
sI38
S'        #TODO verificar porque da necessidade da chamada ao met\xc3\xb3do abaixo, refatorar ?'
p209
sI39
S'        #First page'
p210
sI40
S'        self.add_page()'
p211
sI41
S''
sI42
S'        self.write_html(self.report.get_html())'
p212
sI43
S''
sI44
S'    def header(self):'
p213
sI45
S"        #self.image('tutorial/logo_pb.png',10,8,33)"
p214
sI46
S"        self.set_font('Arial','B',15)"
p215
ssg119
S'(self=<applications.plugin_appreport.modules.plugin_ap....appreport.pdf_builder.PdfBuilderPyfpdf instance>, report=<applications.plugin_appreport.modules.plugin_appreport.appreport.report.ReportHtml instance>)'
p216
sg121
g49
sa(dp217
g99
S'/home/lucasdavila/central/ws/web2py/src/web2pydev/applications/plugin_appreport/modules/plugin_appreport/appreport/libs/pyfpdf/html.py'
p218
sg101
(dp219
S'h2p.feed'
p220
S'<bound method HTML2FPDF.feed of <applications.pl...t.appreport.libs.pyfpdf.html.HTML2FPDF instance>>'
p221
sS'text'
p222
S'\'<!DOCTYPE html>\\n<html lang="pt-br" class="no-js"...t\\\');\\n\\t   </script>\\n\\t   -->    \\n  </body>\\n</html>\\n\''
p223
sS'h2p'
p224
S'<applications.plugin_appreport.modules.plugin_ap...rt.appreport.libs.pyfpdf.html.HTML2FPDF instance>'
p225
ssg107
I387
sg108
(dp226
I384
S'    def write_html(self, text):'
p227
sI385
S'        "Parse HTML and convert it to PDF"'
p228
sI386
S'        h2p = HTML2FPDF(self)'
p229
sI387
S'        h2p.feed(text)'
p230
sI388
S''
sI389
S"if __name__=='__main__':"
p231
sI390
S'    html="""'
p232
sI391
S'<H1 align="center">html2fpdf</H1>'
p233
sI382
S''
sI383
S'class HTMLMixin():'
p234
ssg119
S'(self=<applications.plugin_appreport.modules.plugin_ap....appreport.pdf_builder.PdfBuilderPyfpdf instance>, text=\'<!DOCTYPE html>\\n<html lang="pt-br" class="no-js"...t\\\');\\n\\t   </script>\\n\\t   -->    \\n  </body>\\n</html>\\n\')'
p235
sg121
S'write_html'
p236
sa(dp237
g99
S'/usr/lib/python2.6/HTMLParser.py'
p238
sg101
(dp239
S'self.goahead'
p240
S'<bound method HTML2FPDF.goahead of <applications...t.appreport.libs.pyfpdf.html.HTML2FPDF instance>>'
p241
sS'self'
p242
S'<applications.plugin_appreport.modules.plugin_ap...rt.appreport.libs.pyfpdf.html.HTML2FPDF instance>'
p243
ssg107
I108
sg108
(dp244
I103
S''
sI104
S'        Call this as often as you want, with as little or as much text'
p245
sI105
S"        as you want (may include '\\n')."
p246
sI106
S'        """'
p247
sI107
S'        self.rawdata = self.rawdata + data'
p248
sI108
S'        self.goahead(0)'
p249
sI109
S''
sI110
S'    def close(self):'
p250
sI111
S'        """Handle any buffered data."""'
p251
sI112
S'        self.goahead(1)'
p252
ssg119
S'(self=<applications.plugin_appreport.modules.plugin_ap...rt.appreport.libs.pyfpdf.html.HTML2FPDF instance>, data=\'<!DOCTYPE html>\\n<html lang="pt-br" class="no-js"...t\\\');\\n\\t   </script>\\n\\t   -->    \\n  </body>\\n</html>\\n\')'
p253
sg121
S'feed'
p254
sa(dp255
g99
S'/usr/lib/python2.6/HTMLParser.py'
p256
sg101
(dp257
S'i'
S'9937'
p258
sS'k'
S'9937'
p259
sS'self.parse_endtag'
p260
S'<bound method HTML2FPDF.parse_endtag of <applica...t.appreport.libs.pyfpdf.html.HTML2FPDF instance>>'
p261
sS'self'
p262
S'<applications.plugin_appreport.modules.plugin_ap...rt.appreport.libs.pyfpdf.html.HTML2FPDF instance>'
p263
ssg107
I150
sg108
(dp264
I145
S'            startswith = rawdata.startswith'
p265
sI146
S"            if startswith('<', i):"
p266
sI147
S'                if starttagopen.match(rawdata, i): # < + letter'
p267
sI148
S'                    k = self.parse_starttag(i)'
p268
sI149
S'                elif startswith("</", i):'
p269
sI150
S'                    k = self.parse_endtag(i)'
p270
sI151
S'                elif startswith("<!--", i):'
p271
sI152
S'                    k = self.parse_comment(i)'
p272
sI153
S'                elif startswith("<?", i):'
p273
sI154
S'                    k = self.parse_pi(i)'
p274
ssg119
S'(self=<applications.plugin_appreport.modules.plugin_ap...rt.appreport.libs.pyfpdf.html.HTML2FPDF instance>, end=0)'
p275
sg121
S'goahead'
p276
sa(dp277
g99
S'/usr/lib/python2.6/HTMLParser.py'
p278
sg101
(dp279
S'self'
p280
S'<applications.plugin_appreport.modules.plugin_ap...rt.appreport.libs.pyfpdf.html.HTML2FPDF instance>'
p281
sS'tag'
p282
S"'td'"
p283
sS'tag.lower'
p284
S'<built-in method lower of str object>'
p285
sS'self.handle_endtag'
p286
S'<bound method HTML2FPDF.handle_endtag of <applic...t.appreport.libs.pyfpdf.html.HTML2FPDF instance>>'
p287
ssg107
I319
sg108
(dp288
I320
S'        self.clear_cdata_mode()'
p289
sI321
S'        return j'
p290
sI322
S''
sI323
S'    # Overridable -- finish processing of start+end tag: <tag.../>'
p291
sI314
S'        j = match.end()'
p292
sI315
S'        match = endtagfind.match(rawdata, i) # </ + tag + >'
p293
sI316
S'        if not match:'
p294
sI317
S'            self.error("bad end tag: %r" % (rawdata[i:j],))'
p295
sI318
S'        tag = match.group(1)'
p296
sI319
S'        self.handle_endtag(tag.lower())'
p297
ssg119
S'(self=<applications.plugin_appreport.modules.plugin_ap...rt.appreport.libs.pyfpdf.html.HTML2FPDF instance>, i=9937)'
p298
sg121
S'parse_endtag'
p299
sa(dp300
g99
S'/home/lucasdavila/central/ws/web2py/src/web2pydev/applications/plugin_appreport/modules/plugin_appreport/appreport/libs/pyfpdf/html.py'
p301
sg101
(dp302
S'self'
p303
S'<applications.plugin_appreport.modules.plugin_ap...rt.appreport.libs.pyfpdf.html.HTML2FPDF instance>'
p304
sS'self.td'
p305
S'None'
p306
sS'builtinint'
p307
S"<type 'int'>"
p308
sS'self.table_col_index'
p309
S'4'
sS'self.td.get'
p310
g143
ssg107
I322
sg108
(dp311
I320
S'                if DEBUG: print "revert style"'
p312
sI321
S"                self.set_style('B', False) # revert style"
p313
sI322
S"            self.table_col_index += int(self.td.get('colspan','1'))"
p314
sI323
S'            self.td = None'
p315
sI324
S'            self.th = False'
p316
sI325
S"        if tag=='font':"
p317
sI326
S'            if self.color:'
p318
sI317
S'            self.tr = None'
p319
sI318
S"        if tag=='td' or tag=='th':"
p320
sI319
S'            if self.th:'
p321
ssg119
S"(self=<applications.plugin_appreport.modules.plugin_ap...rt.appreport.libs.pyfpdf.html.HTML2FPDF instance>, tag='td')"
p322
sg121
S'handle_endtag'
p323
sasS'pyver'
p324
S'Python 2.6.6: /usr/bin/python'
p325
sS'session'
p326
(dp327
S'_formkey[person/None]'
p328
S"'694cb263-72ed-4f0e-a3f5-f2dd18fe1b84'"
p329
sS'_formkey[default]'
p330
S"'b3b0cec4-8574-4bc6-be2f-e7169baaa707'"
p331
sS'auth'
p332
S'None'
p333
ssS'etype'
p334
S"<type 'exceptions.AttributeError'>"
p335
sS'date'
p336
S'Tue Jan 25 22:36:05 2011'
p337
sS'response'
p338
(dp339
S'status'
p340
S'200'
p341
sg59
S'<cStringIO.StringO object>'
p342
sg76
S"<SimpleCookie: session_id_plugin_appreport='127.0.0.1-56d0272b-4d25-4fdb-bf2c-da2c92731bad'>"
p343
sS'_vars'
p344
S"{'vars': {'persons': <gluon.dal.Rows object>}}"
p345
sS'title'
p346
S"'Plugin appreport'"
p347
sS'session_file'
p348
S"<open file '/home/lucasdavila/central/ws/web2py/...6d0272b-4d25-4fdb-bf2c-da2c92731bad', mode 'rb+'>"
p349
sS'flash'
p350
S"''"
p351
sS'_custom_rollback'
p352
S'None'
p353
sS'session_id'
p354
S"'127.0.0.1-56d0272b-4d25-4fdb-bf2c-da2c92731bad'"
p355
sS'headers'
p356
S"<Storage {'Expires': 'Wed, 26 Jan 2011 00:36:05 ...he, must-revalidate, post-check=0, pre-check=0'}>"
p357
sS'meta'
p358
S"<Storage {'keywords': 'web2py, python, framework... 'Web2py Enterprise Framework', 'author': 'you'}>"
p359
sS'session_filename'
p360
S"'/home/lucasdavila/central/ws/web2py/src/web2pyde...ns/127.0.0.1-56d0272b-4d25-4fdb-bf2c-da2c92731bad'"
p361
sS'postprocessing'
p362
S'[]'
p363
sS'menu'
p364
S"[(<lazyT 'Home'>, False, <gluon.html.XML object>, []), (<lazyT 'Files'>, False, <gluon.html.XML object>, [('person', False, <gluon.html.XML object>)]), (<lazyT 'Repors'>, False, <gluon.html.XML object>, [('Simple', False, <gluon.html.XML object>), ('Custon', False, <gluon.html.XML object>), ('Complex', False, <gluon.html.XML object>)]), (<lazyT 'About'>, False, <gluon.html.XML object>, [])]"
p365
sS'_view_environment'
p366
S"{'A': <class 'gluon.html.A'>, 'Auth': <class 'gluon.tools.Auth'>, 'B': <class 'gluon.html.B'>, 'BEAUTIFY': <class 'gluon.html.BEAUTIFY'>, 'BODY': <class 'gluon.html.BODY'>, 'BR': <class 'gluon.html.BR'>, 'CENTER': <class 'gluon.html.CENTER'>, 'CLEANUP': <class 'gluon.validators.CLEANUP'>, 'CODE': <class 'gluon.html.CODE'>, 'CRYPT': <class 'gluon.validators.CRYPT'>, ...}"
p367
sS'subtitle'
p368
S"<lazyT 'customize me!'>"
p369
sS'session_id_name'
p370
S"'session_id_plugin_appreport'"
p371
sS'_custom_commit'
p372
S'None'
p373
sS'_caller'
p374
S'<function <lambda>>'
p375
sS'files'
p376
S'[<gluon.html.XML object>, <gluon.html.XML object>, <gluon.html.XML object>, <gluon.html.XML object>, <gluon.html.XML object>, <gluon.html.XML object>]'
p377
sS'view'
p378
S"'person/complex_report.html'"
p379
ssS'locals'
p380
(dp381
S'self'
p382
S'<applications.plugin_appreport.modules.plugin_ap...rt.appreport.libs.pyfpdf.html.HTML2FPDF instance>'
p383
sS'tag'
p384
S"'td'"
p385
sssS'traceback'
p386
S'Traceback (most recent call last):\n  File "/home/lucasdavila/central/ws/web2py/src/web2pydev/gluon/restricted.py", line 188, in restricted\n    exec ccode in environment\n  File "/home/lucasdavila/central/ws/web2py/src/web2pydev/applications/plugin_appreport/controllers/person.py", line 59, in <module>\n  File "/home/lucasdavila/central/ws/web2py/src/web2pydev/gluon/globals.py", line 95, in <lambda>\n    self._caller = lambda f: f()\n  File "/home/lucasdavila/central/ws/web2py/src/web2pydev/applications/plugin_appreport/controllers/person.py", line 28, in complex_report\n    return plugin_appreport.REPORT(html = html, title = \'List of persons\')\n  File "/home/lucasdavila/central/ws/web2py/src/web2pydev/applications/plugin_appreport/models/plugin_appreport.py", line 70, in REPORT\n    pdf_builder = plugin_appreport_appreport.pdf_builder.PdfBuilderPyfpdf(report = report)\n  File "applications/plugin_appreport/modules/plugin_appreport/appreport/pdf_builder.py", line 42, in __init__\n    self.write_html(self.report.get_html())\n  File "applications/plugin_appreport/modules/plugin_appreport/appreport/libs/pyfpdf/html.py", line 387, in write_html\n    h2p.feed(text)\n  File "/usr/lib/python2.6/HTMLParser.py", line 108, in feed\n    self.goahead(0)\n  File "/usr/lib/python2.6/HTMLParser.py", line 150, in goahead\n    k = self.parse_endtag(i)\n  File "/usr/lib/python2.6/HTMLParser.py", line 319, in parse_endtag\n    self.handle_endtag(tag.lower())\n  File "applications/plugin_appreport/modules/plugin_appreport/appreport/libs/pyfpdf/html.py", line 322, in handle_endtag\n    self.table_col_index += int(self.td.get(\'colspan\',\'1\'))\nAttributeError: \'NoneType\' object has no attribute \'get\'\n'
p387
s.