(dp1
S'output'
p2
S''
sS'layer'
p3
S'/home/lucasdavila/central/ws/web2py/src/web2pydev/applications/plugin_appreport/controllers/person.py'
p4
sS'code'
p5
S'# coding: utf8\n\ndef create():\n\n    form = crud.create(person)\n    form_favs = crud.create(favorite_music)\n    persons = db().select(db.person.ALL, db.favorite_music.ALL, left=favorite_music.on(person.id == favorite_music.person))\n\n    return dict(form = form, form_favs = form_favs, persons = persons)\n    \n\ndef simple_report():\n\n    form = plugin_appreport.REPORTFORM(table=person)\n\n    if form.accepts(request.vars, session):\n        return plugin_appreport.REPORT(table = person, title = \'List of persons\', filter = dict(form.vars))\n\n    return dict(form = form)\n    \ndef report_persons():\n\n    return dict(persons = db(person.id > 0).select())\n\n\ndef complex_report():\n\n    form = plugin_appreport.REPORTFORM(table=person)\n\n    if form.accepts(request.vars, session):\n        persons = db(form.prep_filter(filter = dict(form.vars))).select()\n        html = response.render(\'person/report_persons.html\', dict(persons = persons))\n        return plugin_appreport.REPORT(html = html, title = \'List of persons\')\n\n    return dict(form = form)\n\n\n\ndef custom_report():\n    \n    html = """<html>\n                <body>\n                    <table>\n                        <thead>\n                            <tr>\n                                <th>Author</th>\n                                <th>Email</th>\n                                <th>Twitter</th>\n                            </tr>\n                        </thead>\n                        <tbody>\n                            <tr>\n                                <td>Lucas Davila</td>\n                                <td>lucassdvl@gmail.com</td>\n                                <td>@lucadavila</td>                                \n                            </tr>\n                        </tbody>\n                    </table>\n                </body>\n            </html>\n    """\n    return plugin_appreport.REPORT(html = html, title = \'my custom report using the plugin appreport\')\n\nresponse._vars=response._caller(simple_report)\n'
p6
sS'snapshot'
p7
(dp8
S'exception'
p9
(dp10
S'__hash__'
p11
S"<method-wrapper '__hash__' of exceptions.AttributeError object>"
p12
sS'__setattr__'
p13
S"<method-wrapper '__setattr__' of exceptions.AttributeError object>"
p14
sS'__reduce_ex__'
p15
S'<built-in method __reduce_ex__ of exceptions.AttributeError object>'
p16
sS'__getslice__'
p17
S"<method-wrapper '__getslice__' of exceptions.AttributeError object>"
p18
sS'__getitem__'
p19
S"<method-wrapper '__getitem__' of exceptions.AttributeError object>"
p20
sS'__setstate__'
p21
S'<built-in method __setstate__ of exceptions.AttributeError object>'
p22
sS'__reduce__'
p23
S'<built-in method __reduce__ of exceptions.AttributeError object>'
p24
sS'__str__'
p25
S"<method-wrapper '__str__' of exceptions.AttributeError object>"
p26
sS'__format__'
p27
S'<built-in method __format__ of exceptions.AttributeError object>'
p28
sS'__getattribute__'
p29
S"<method-wrapper '__getattribute__' of exceptions.AttributeError object>"
p30
sS'__class__'
p31
S"<type 'exceptions.AttributeError'>"
p32
sS'__unicode__'
p33
S'<built-in method __unicode__ of exceptions.AttributeError object>'
p34
sS'__delattr__'
p35
S"<method-wrapper '__delattr__' of exceptions.AttributeError object>"
p36
sS'__subclasshook__'
p37
S'<built-in method __subclasshook__ of type object>'
p38
sS'__repr__'
p39
S"<method-wrapper '__repr__' of exceptions.AttributeError object>"
p40
sS'args'
p41
S'("ReportHtmlDbWeb2py instance has no attribute \'charset\'",)'
p42
sS'__dict__'
p43
S'{}'
p44
sS'__sizeof__'
p45
S'<built-in method __sizeof__ of exceptions.AttributeError object>'
p46
sS'__doc__'
p47
S"'Attribute not found.'"
p48
sS'__init__'
p49
S"<method-wrapper '__init__' of exceptions.AttributeError object>"
p50
sS'__new__'
p51
S'<built-in method __new__ of type object>'
p52
ssS'evalue'
p53
S"ReportHtmlDbWeb2py instance has no attribute 'charset'"
p54
sS'request'
p55
(dp56
S'function'
p57
S"'simple_report'"
p58
sS'body'
p59
S"<open file '<fdopen>', mode 'w+b'>"
p60
sS'wsgi'
p61
S"<Storage {'start_response': <function <lambda> a...>, 'HTTP_ACCEPT_ENCODING': 'gzip,deflate,sdch'}}>"
p62
sS'extension'
p63
S"'html'"
p64
sS'vars'
p65
S"<Storage {'person.email': '', 'person.phone': ''...d2c', '_formname': 'default', 'person.name': ''}>"
p66
sS'cid'
p67
S'None'
p68
sS'url'
p69
S'<gluon.html.XML object>'
p70
sS'raw_extension'
p71
S'None'
p72
sg41
S'[]'
p73
sS'controller'
p74
S"'person'"
p75
sS'cookies'
p76
S"<SimpleCookie: session_id_admin='127.0.0.1-ab65c...'127.0.0.1-3fb54433-9a7e-4167-b09f-f0891a2471ca'>"
p77
sS'application'
p78
S"'plugin_appreport'"
p79
sS'ajax'
p80
S'False'
p81
sS'client'
p82
S"'127.0.0.1'"
p83
sS'env'
p84
S"<Storage {'content_length': '670', 'debugging': ...undaryrUqaiJxRBxAzmxJl', 'remote_port': '58323'}>"
p85
sS'raw_args'
p86
S'None'
p87
sS'get_vars'
p88
S'<Storage {}>'
p89
sS'folder'
p90
S"'/home/lucasdavila/central/ws/web2py/src/web2pydev/applications/plugin_appreport/'"
p91
sS'now'
p92
S'datetime.datetime(2011, 1, 26, 22, 2, 42, 183684)'
p93
sS'post_vars'
p94
S"<Storage {'person.email': '', 'person.phone': ''...d2c', '_formname': 'default', 'person.name': ''}>"
p95
ssS'frames'
p96
(lp97
(dp98
S'file'
p99
S'/home/lucasdavila/central/ws/web2py/src/web2pydev/gluon/restricted.py'
p100
sS'dump'
p101
(dp102
S'environment'
p103
S"{'A': <class 'gluon.html.A'>, 'Auth': <class 'gluon.tools.Auth'>, 'B': <class 'gluon.html.B'>, 'BEAUTIFY': <class 'gluon.html.BEAUTIFY'>, 'BODY': <class 'gluon.html.BODY'>, 'BR': <class 'gluon.html.BR'>, 'CENTER': <class 'gluon.html.CENTER'>, 'CLEANUP': <class 'gluon.validators.CLEANUP'>, 'CODE': <class 'gluon.html.CODE'>, 'CRYPT': <class 'gluon.validators.CRYPT'>, ...}"
p104
sS'ccode'
p105
S'<code object <module> at 0xad2fe78, file "/home/.../plugin_appreport/controllers/person.py", line 3>'
p106
ssS'lnum'
p107
I188
sS'lines'
p108
(dp109
I192
S'        # XXX Show exception in Wing IDE if running in debugger'
p110
sI183
S'        if type(code) == types.CodeType:'
p111
sI184
S'            ccode = code'
p112
sI185
S'        else:'
p113
sI186
S'            ccode = compile2(code,layer)'
p114
sI187
S''
sI188
S'        exec ccode in environment'
p115
sI189
S'    except HTTP:'
p116
sI190
S'        raise'
p117
sI191
S'    except Exception:'
p118
ssS'call'
p119
S"(code='# coding: utf8\\n\\ndef create():\\n\\n    form = crud.c...\\n\\nresponse._vars=response._caller(simple_report)\\n', environment={'A': <class 'gluon.html.A'>, 'Auth': <class 'gluon.tools.Auth'>, 'B': <class 'gluon.html.B'>, 'BEAUTIFY': <class 'gluon.html.BEAUTIFY'>, 'BODY': <class 'gluon.html.BODY'>, 'BR': <class 'gluon.html.BR'>, 'CENTER': <class 'gluon.html.CENTER'>, 'CLEANUP': <class 'gluon.validators.CLEANUP'>, 'CODE': <class 'gluon.html.CODE'>, 'CRYPT': <class 'gluon.validators.CRYPT'>, ...}, layer='/home/lucasdavila/central/ws/web2py/src/web2pyde...plications/plugin_appreport/controllers/person.py')"
p120
sS'func'
p121
S'restricted'
p122
sa(dp123
g99
S'/home/lucasdavila/central/ws/web2py/src/web2pydev/applications/plugin_appreport/controllers/person.py'
p124
sg101
(dp125
sg107
I64
sg108
(dp126
I53
S'                                <td>Lucas Davila</td>'
p127
sI54
S'                                <td>lucassdvl@gmail.com</td>'
p128
sI55
S'                                <td>@lucadavila</td>'
p129
sI56
S'                            </tr>'
p130
sI57
S'                        </tbody>'
p131
sI58
S'                    </table>'
p132
sI59
S'                </body>'
p133
sI60
S'            </html>'
p134
sI61
S'    """'
p135
sI62
S"    return plugin_appreport.REPORT(html = html, title = 'my custom report using the plugin appreport')"
p136
ssg119
S'()'
p137
sg121
S'<module>'
p138
sa(dp139
g99
S'/home/lucasdavila/central/ws/web2py/src/web2pydev/gluon/globals.py'
p140
sg101
(dp141
S'self'
p142
S'undefined'
p143
sS'f'
S'<function simple_report>'
p144
ssg107
I95
sg108
(dp145
I96
S'        self._view_environment = None'
p146
sI97
S'        self._custom_commit = None'
p147
sI98
S'        self._custom_rollback = None'
p148
sI99
S''
sI90
S"        self.flash = ''           # used by the default view layout"
p149
sI91
S'        self.meta = Storage()     # used by web2py_ajax.html'
p150
sI92
S'        self.menu = []            # used by the default view layout'
p151
sI93
S'        self.files = []           # used by web2py_ajax.html'
p152
sI94
S'        self._vars = None'
p153
sI95
S'        self._caller = lambda f: f()'
p154
ssg119
S'(f=<function simple_report>)'
p155
sg121
S'<lambda>'
p156
sa(dp157
g99
S'/home/lucasdavila/central/ws/web2py/src/web2pydev/applications/plugin_appreport/controllers/person.py'
p158
sg101
(dp159
S'form.vars'
p160
S"<Storage {'person.phone': '', 'person.email': '', 'person.id': '', 'person.name': ''}>"
p161
sS'form'
p162
S'<gluon.html.FORM object>'
p163
sS'title'
p164
g143
sS'builtinfilter'
p165
S'<built-in function filter>'
p166
sS'builtindict'
p167
S"<type 'dict'>"
p168
sS'global plugin_appreport'
p169
S'<__builtin__.PluginAppreport instance>'
p170
sS'table'
p171
g143
sS'global person'
p172
S"<Table {'ALL': <gluon.dal.SQLALL object at 0xad4...c>, 'id': <gluon.dal.Field object at 0xad3af0c>}>"
p173
sS'plugin_appreport.REPORT'
p174
S'<bound method PluginAppreport.REPORT of <__builtin__.PluginAppreport instance>>'
p175
ssg107
I17
sg108
(dp176
I12
S'def simple_report():'
p177
sI13
S''
sI14
S'    form = plugin_appreport.REPORTFORM(table=person)'
p178
sI15
S''
sI16
S'    if form.accepts(request.vars, session):'
p179
sI17
S"        return plugin_appreport.REPORT(table = person, title = 'List of persons', filter = dict(form.vars))"
p180
sI18
S''
sI19
S'    return dict(form = form)'
p181
sI20
S''
sI21
S'def report_persons():'
p182
ssg119
S'()'
p183
sg121
S'simple_report'
p184
sa(dp185
g99
S'/home/lucasdavila/central/ws/web2py/src/web2pydev/applications/plugin_appreport/models/plugin_appreport.py'
p186
sg101
(dp187
S'charset'
p188
S"'utf-8'"
p189
sS'orientation'
p190
S"'P'"
p191
sS'title'
p192
S"'List of persons'"
p193
sS'format'
p194
S"'A4'"
p195
sS'plugin_appreport_appreport.report'
p196
S"<module 'applications.plugin_appreport.modules.p...rt/modules/plugin_appreport/appreport/report.py'>"
p197
sS'filter'
p198
S"{'person.email': '', 'person.id': '', 'person.name': '', 'person.phone': ''}"
p199
sS'plugin_appreport_appreport.report.ReportHtmlDbWeb2py'
p200
S'<class applications.plugin_appreport.modules.plugin_appreport.appreport.report.ReportHtmlDbWeb2py>'
p201
sS'global plugin_appreport_appreport'
p202
S"<module 'applications.plugin_appreport.modules.p...modules/plugin_appreport/appreport/__init__.pyc'>"
p203
sS'report'
p204
g143
sS'table'
p205
S"<Table {'ALL': <gluon.dal.SQLALL object at 0xad4...c>, 'id': <gluon.dal.Field object at 0xad3af0c>}>"
p206
sS'user_name'
p207
S"''"
p208
sS'unit'
p209
S"'mm'"
p210
ssg107
I72
sg108
(dp211
I67
S''
sI68
S"        if html.strip() != '':"
p212
sI69
S'            report = plugin_appreport_appreport.report.ReportHtml(user_name = user_name,'
p213
sI70
S'            title = title, html = html, orientation = orientation, unit = unit, format = format, charset = charset)'
p214
sI71
S'        else:'
p215
sI72
S'            report = plugin_appreport_appreport.report.ReportHtmlDbWeb2py(table = table, filter = filter, user_name = user_name, title = title, orientation = orientation, unit = unit, format = format, charset = charset)'
p216
sI73
S''
sI74
S''
sI75
S"        if engine == 'pisa':"
p217
sI76
S'            pdf_builder = plugin_appreport_appreport.pdf_builder.PdfBuilderPisa(report = report)'
p218
ssg119
S"(self=<__builtin__.PluginAppreport instance>, table=<Table {'ALL': <gluon.dal.SQLALL object at 0xad4...c>, 'id': <gluon.dal.Field object at 0xad3af0c>}>, filter={'person.email': '', 'person.id': '', 'person.name': '', 'person.phone': ''}, html='', engine='pisa', charset='utf-8', title='List of persons', orientation='P', unit='mm', format='A4')"
p219
sg121
S'REPORT'
p220
sa(dp221
g99
S'/home/lucasdavila/central/ws/web2py/src/web2pydev/applications/plugin_appreport/modules/plugin_appreport/appreport/report.py'
p222
sg101
(dp223
S'format'
p224
S"'A4'"
p225
sS'charset'
p226
S"'utf-8'"
p227
sS'orientation'
p228
S"'P'"
p229
sS'unit'
p230
S"'mm'"
p231
sS'title'
p232
S"'List of persons'"
p233
ssg107
I88
sg108
(dp234
I83
S''
sI84
S''
sI85
S"    def __init__(self, table, filter = '', user_name = 'anonymous', title = 'Report', orientation = 'P', unit = 'mm', format = 'A4', charset = 'utf-8'):"
p235
sI86
S''
sI87
S'        ReportHtmlDb.__init__(self, db = table._db, table = table, filter = filter, user_name = user_name,'
p236
sI88
S'            title = title, orientation = orientation, unit = unit, format = format, charset = charset)'
p237
sI89
S''
sI90
S'    def _get_filter(self):'
p238
sI91
S''
sI92
S'        return utils.UtilsWeb2py().prep_filter(vars = self._filter, table = self.table)'
p239
ssg119
S"(self=<applications.plugin_appreport.modules.plugin_ap...ort.appreport.report.ReportHtmlDbWeb2py instance>, table=<Table {'ALL': <gluon.dal.SQLALL object at 0xad4...c>, 'id': <gluon.dal.Field object at 0xad3af0c>}>, filter={'person.email': '', 'person.id': '', 'person.name': '', 'person.phone': ''}, user_name='', title='List of persons', orientation='P', unit='mm', format='A4', charset='utf-8')"
p240
sg121
g49
sa(dp241
g99
S'/home/lucasdavila/central/ws/web2py/src/web2pydev/applications/plugin_appreport/modules/plugin_appreport/appreport/report.py'
p242
sg101
(dp243
S'orientation'
p244
S"'P'"
p245
sS'format'
p246
S"'A4'"
p247
sS'self'
p248
S'<applications.plugin_appreport.modules.plugin_ap...ort.appreport.report.ReportHtmlDbWeb2py instance>'
p249
sS'charset'
p250
S"'utf-8'"
p251
sS'html'
p252
g143
sS'self.get_html'
p253
S'<bound method ReportHtmlDbWeb2py.get_html of <ap...rt.appreport.report.ReportHtmlDbWeb2py instance>>'
p254
sS'unit'
p255
S"'mm'"
p256
ssg107
I71
sg108
(dp257
I66
S''
sI67
S'        self.db = db'
p258
sI68
S'        self.table = table'
p259
sI69
S'        self._filter = filter'
p260
sI70
S'        ReportHtml.__init__(self, user_name = user_name, title = title,'
p261
sI71
S'            html = self.get_html(), orientation = orientation, unit = unit, format = format, charset = charset)'
p262
sI72
S''
sI73
S'    def _get_filter(self):'
p263
sI74
S''
sI75
S'        return self._filter'
p264
ssg119
S"(self=<applications.plugin_appreport.modules.plugin_ap...ort.appreport.report.ReportHtmlDbWeb2py instance>, db=<DAL {'auth_permission': <Table {'ALL': <gluon.d...lications/plugin_appreport/databases/sql.log'}>}>, table=<Table {'ALL': <gluon.dal.SQLALL object at 0xad4...c>, 'id': <gluon.dal.Field object at 0xad3af0c>}>, filter={'person.email': '', 'person.id': '', 'person.name': '', 'person.phone': ''}, user_name='', title='List of persons', orientation='P', unit='mm', format='A4', charset='utf-8')"
p265
sg121
g49
sa(dp266
g99
S'/home/lucasdavila/central/ws/web2py/src/web2pydev/applications/plugin_appreport/modules/plugin_appreport/appreport/report.py'
p267
sg101
(dp268
S'global SQLTABLE'
p269
S"<class 'gluon.sqlhtml.SQLTABLE'>"
p270
sS'records'
p271
S'<gluon.dal.Rows object>'
p272
sS'self'
p273
S'<applications.plugin_appreport.modules.plugin_ap...ort.appreport.report.ReportHtmlDbWeb2py instance>'
p274
sS'headers'
p275
g143
sS'self.charset'
p276
g143
sS'global BODY'
p277
S"<class 'gluon.html.BODY'>"
p278
ssg107
I98
sg108
(dp279
I96
S'        #TODO: se records < 1 ent\xc3\xa3o exibir mensagem sem dados para exibir ?'
p280
sI97
S'        records = self.db(self._get_filter()).select()'
p281
sI98
S'        return \'<html><head><meta charset="%s" /></head>%s</html>\'%(self.charset, BODY(SQLTABLE(records, headers=\'fieldname:capitalize\')))'
p282
sI89
S''
sI90
S'    def _get_filter(self):'
p283
sI91
S''
sI92
S'        return utils.UtilsWeb2py().prep_filter(vars = self._filter, table = self.table)'
p284
sI93
S''
sI94
S'    def get_html(self):'
p285
sI95
S''
ssg119
S'(self=<applications.plugin_appreport.modules.plugin_ap...ort.appreport.report.ReportHtmlDbWeb2py instance>)'
p286
sg121
S'get_html'
p287
sasS'pyver'
p288
S'Python 2.6.6: /usr/bin/python'
p289
sS'session'
p290
(dp291
S'_formkey[person/None]'
p292
S"'088ef73d-ff1e-44a6-8f8e-0f861f3cba55'"
p293
sS'_formkey[default]'
p294
S"'19c5e6b7-3982-486a-ba3f-37aabb92402a'"
p295
sS'_formkey[favorite_music/None]'
p296
S"'5033c80c-21f4-4275-996e-dae96170d1db'"
p297
sS'auth'
p298
S'None'
p299
ssS'etype'
p300
S"<type 'exceptions.AttributeError'>"
p301
sS'date'
p302
S'Wed Jan 26 22:02:42 2011'
p303
sS'response'
p304
(dp305
S'status'
p306
S'200'
p307
sg59
S'<cStringIO.StringO object>'
p308
sg76
S"<SimpleCookie: session_id_plugin_appreport='127.0.0.1-56d0272b-4d25-4fdb-bf2c-da2c92731bad'>"
p309
sS'_vars'
p310
S'None'
p311
sS'title'
p312
S"'Plugin appreport'"
p313
sS'session_file'
p314
S"<open file '/home/lucasdavila/central/ws/web2py/...6d0272b-4d25-4fdb-bf2c-da2c92731bad', mode 'rb+'>"
p315
sS'flash'
p316
S"''"
p317
sS'_custom_rollback'
p318
S'None'
p319
sS'session_id'
p320
S"'127.0.0.1-56d0272b-4d25-4fdb-bf2c-da2c92731bad'"
p321
sS'headers'
p322
S"<Storage {'Expires': 'Thu, 27 Jan 2011 00:02:42 ...he, must-revalidate, post-check=0, pre-check=0'}>"
p323
sS'meta'
p324
S"<Storage {'keywords': 'web2py, python, framework... 'Web2py Enterprise Framework', 'author': 'you'}>"
p325
sS'session_filename'
p326
S"'/home/lucasdavila/central/ws/web2py/src/web2pyde...ns/127.0.0.1-56d0272b-4d25-4fdb-bf2c-da2c92731bad'"
p327
sS'postprocessing'
p328
S'[]'
p329
sS'menu'
p330
S"[(<lazyT 'Home'>, False, <gluon.html.XML object>, []), (<lazyT 'Files'>, False, <gluon.html.XML object>, [('person', False, <gluon.html.XML object>)]), (<lazyT 'Repors'>, False, <gluon.html.XML object>, [('Simple', False, <gluon.html.XML object>), ('Custon', False, <gluon.html.XML object>), ('Complex', False, <gluon.html.XML object>)]), (<lazyT 'About'>, False, <gluon.html.XML object>, [])]"
p331
sS'_view_environment'
p332
S"{'A': <class 'gluon.html.A'>, 'Auth': <class 'gluon.tools.Auth'>, 'B': <class 'gluon.html.B'>, 'BEAUTIFY': <class 'gluon.html.BEAUTIFY'>, 'BODY': <class 'gluon.html.BODY'>, 'BR': <class 'gluon.html.BR'>, 'CENTER': <class 'gluon.html.CENTER'>, 'CLEANUP': <class 'gluon.validators.CLEANUP'>, 'CODE': <class 'gluon.html.CODE'>, 'CRYPT': <class 'gluon.validators.CRYPT'>, ...}"
p333
sS'subtitle'
p334
S"<lazyT 'customize me!'>"
p335
sS'session_id_name'
p336
S"'session_id_plugin_appreport'"
p337
sS'_custom_commit'
p338
S'None'
p339
sS'_caller'
p340
S'<function <lambda>>'
p341
sS'files'
p342
S'[]'
p343
sS'view'
p344
S"'person/simple_report.html'"
p345
ssS'locals'
p346
(dp347
S'records'
p348
S'<gluon.dal.Rows object>'
p349
sS'self'
p350
S'<applications.plugin_appreport.modules.plugin_ap...ort.appreport.report.ReportHtmlDbWeb2py instance>'
p351
sssS'traceback'
p352
S'Traceback (most recent call last):\n  File "/home/lucasdavila/central/ws/web2py/src/web2pydev/gluon/restricted.py", line 188, in restricted\n    exec ccode in environment\n  File "/home/lucasdavila/central/ws/web2py/src/web2pydev/applications/plugin_appreport/controllers/person.py", line 64, in <module>\n  File "/home/lucasdavila/central/ws/web2py/src/web2pydev/gluon/globals.py", line 95, in <lambda>\n    self._caller = lambda f: f()\n  File "/home/lucasdavila/central/ws/web2py/src/web2pydev/applications/plugin_appreport/controllers/person.py", line 17, in simple_report\n    return plugin_appreport.REPORT(table = person, title = \'List of persons\', filter = dict(form.vars))\n  File "/home/lucasdavila/central/ws/web2py/src/web2pydev/applications/plugin_appreport/models/plugin_appreport.py", line 72, in REPORT\n    report = plugin_appreport_appreport.report.ReportHtmlDbWeb2py(table = table, filter = filter, user_name = user_name, title = title, orientation = orientation, unit = unit, format = format, charset = charset)\n  File "applications/plugin_appreport/modules/plugin_appreport/appreport/report.py", line 88, in __init__\n    title = title, orientation = orientation, unit = unit, format = format, charset = charset)\n  File "applications/plugin_appreport/modules/plugin_appreport/appreport/report.py", line 71, in __init__\n    html = self.get_html(), orientation = orientation, unit = unit, format = format, charset = charset)\n  File "applications/plugin_appreport/modules/plugin_appreport/appreport/report.py", line 98, in get_html\n    return \'<html><head><meta charset="%s" /></head>%s</html>\'%(self.charset, BODY(SQLTABLE(records, headers=\'fieldname:capitalize\')))\nAttributeError: ReportHtmlDbWeb2py instance has no attribute \'charset\'\n'
p353
s.