(dp1
S'output'
p2
S''
sS'layer'
p3
S'/home/lucasdavila/central/ws/web2py/src/web2pydev/applications/plugin_appreport/controllers/person.py'
p4
sS'code'
p5
S'# coding: utf8\n\ndef create():\n\n    form = crud.create(person)\n    persons = crud.select(person, person.id > 0)\n\n    return dict(form = form, persons = persons)\n    \n\ndef simple_report():\n\n    form = plugin_appreport.REPORTFORM(table=person)\n\n    if form.accepts(request.vars, session):\n        return plugin_appreport.REPORT(table = person, title = \'List of persons\', filter = dict(form.vars))\n\n    return dict(form = form)\n    \ndef complex_report():\n\n    form = plugin_appreport.REPORTFORM(table=person)\n\n    if form.accepts(request.vars, session):\n        persons = db(person.id > 0).select() #TODO pegar form.get_query ?\n        html = response.render(\'person/report_persons.html\', dict(persons = persons))\n        return plugin_appreport.REPORT(html = html, title = \'List of persons\')\n\n    return dict(form = form)\n\n\n\ndef custom_report():\n    \n    html = """<html>\n                <body>\n                    <table>\n                        <thead>\n                            <tr>\n                                <th>Author</th>\n                                <th>Email</th>\n                                <th>Twitter</th>\n                            </tr>\n                        </thead>\n                        <tbody>\n                            <tr>\n                                <td>Lucas Davila</td>\n                                <td>lucassdvl@gmail.com</td>\n                                <td>@lucadavila</td>                                \n                            </tr>\n                        </tbody>\n                    </table>\n                </body>\n            </html>\n    """\n    return plugin_appreport.REPORT(html = html, title = \'my custom report using the plugin appreport\')\n\nresponse._vars=response._caller(simple_report)\n'
p6
sS'snapshot'
p7
(dp8
S'exception'
p9
(dp10
S'__hash__'
p11
S"<method-wrapper '__hash__' of exceptions.AttributeError object>"
p12
sS'__setattr__'
p13
S"<method-wrapper '__setattr__' of exceptions.AttributeError object>"
p14
sS'__reduce_ex__'
p15
S'<built-in method __reduce_ex__ of exceptions.AttributeError object>'
p16
sS'__getslice__'
p17
S"<method-wrapper '__getslice__' of exceptions.AttributeError object>"
p18
sS'__getitem__'
p19
S"<method-wrapper '__getitem__' of exceptions.AttributeError object>"
p20
sS'__setstate__'
p21
S'<built-in method __setstate__ of exceptions.AttributeError object>'
p22
sS'__reduce__'
p23
S'<built-in method __reduce__ of exceptions.AttributeError object>'
p24
sS'__str__'
p25
S"<method-wrapper '__str__' of exceptions.AttributeError object>"
p26
sS'__format__'
p27
S'<built-in method __format__ of exceptions.AttributeError object>'
p28
sS'__getattribute__'
p29
S"<method-wrapper '__getattribute__' of exceptions.AttributeError object>"
p30
sS'__class__'
p31
S"<type 'exceptions.AttributeError'>"
p32
sS'__unicode__'
p33
S'<built-in method __unicode__ of exceptions.AttributeError object>'
p34
sS'__delattr__'
p35
S"<method-wrapper '__delattr__' of exceptions.AttributeError object>"
p36
sS'__subclasshook__'
p37
S'<built-in method __subclasshook__ of type object>'
p38
sS'__repr__'
p39
S"<method-wrapper '__repr__' of exceptions.AttributeError object>"
p40
sS'args'
p41
S'("\'module\' object has no attribute \'UtilWeb2py\'",)'
p42
sS'__dict__'
p43
S'{}'
p44
sS'__sizeof__'
p45
S'<built-in method __sizeof__ of exceptions.AttributeError object>'
p46
sS'__doc__'
p47
S"'Attribute not found.'"
p48
sS'__init__'
p49
S"<method-wrapper '__init__' of exceptions.AttributeError object>"
p50
sS'__new__'
p51
S'<built-in method __new__ of type object>'
p52
ssS'evalue'
p53
S"'module' object has no attribute 'UtilWeb2py'"
p54
sS'request'
p55
(dp56
S'function'
p57
S"'simple_report'"
p58
sS'body'
p59
S"<open file '<fdopen>', mode 'w+b'>"
p60
sS'wsgi'
p61
S"<Storage {'start_response': <function <lambda> a...>, 'HTTP_ACCEPT_ENCODING': 'gzip,deflate,sdch'}}>"
p62
sS'extension'
p63
S"'html'"
p64
sS'vars'
p65
S"<Storage {'person.email': '', 'person.phone': ''...cb4', '_formname': 'default', 'person.name': ''}>"
p66
sS'cid'
p67
S'None'
p68
sS'url'
p69
S'<gluon.html.XML object>'
p70
sS'raw_extension'
p71
S'None'
p72
sg41
S'[]'
p73
sS'controller'
p74
S"'person'"
p75
sS'cookies'
p76
S"<SimpleCookie: session_id_admin='127.0.0.1-ab65c...'127.0.0.1-3fb54433-9a7e-4167-b09f-f0891a2471ca'>"
p77
sS'application'
p78
S"'plugin_appreport'"
p79
sS'ajax'
p80
S'False'
p81
sS'client'
p82
S"'127.0.0.1'"
p83
sS'env'
p84
S"<Storage {'content_length': '670', 'debugging': ...undaryD1KDs47JsWruvz6n', 'remote_port': '41106'}>"
p85
sS'raw_args'
p86
S'None'
p87
sS'get_vars'
p88
S'<Storage {}>'
p89
sS'folder'
p90
S"'/home/lucasdavila/central/ws/web2py/src/web2pydev/applications/plugin_appreport/'"
p91
sS'now'
p92
S'datetime.datetime(2011, 1, 25, 23, 8, 53, 559072)'
p93
sS'post_vars'
p94
S"<Storage {'person.email': '', 'person.phone': ''...cb4', '_formname': 'default', 'person.name': ''}>"
p95
ssS'frames'
p96
(lp97
(dp98
S'file'
p99
S'/home/lucasdavila/central/ws/web2py/src/web2pydev/gluon/restricted.py'
p100
sS'dump'
p101
(dp102
S'environment'
p103
S"{'A': <class 'gluon.html.A'>, 'Auth': <class 'gluon.tools.Auth'>, 'B': <class 'gluon.html.B'>, 'BEAUTIFY': <class 'gluon.html.BEAUTIFY'>, 'BODY': <class 'gluon.html.BODY'>, 'BR': <class 'gluon.html.BR'>, 'CENTER': <class 'gluon.html.CENTER'>, 'CLEANUP': <class 'gluon.validators.CLEANUP'>, 'CODE': <class 'gluon.html.CODE'>, 'CRYPT': <class 'gluon.validators.CRYPT'>, ...}"
p104
sS'ccode'
p105
S'<code object <module> at 0x9706338, file "/home/.../plugin_appreport/controllers/person.py", line 3>'
p106
ssS'lnum'
p107
I188
sS'lines'
p108
(dp109
I192
S'        # XXX Show exception in Wing IDE if running in debugger'
p110
sI183
S'        if type(code) == types.CodeType:'
p111
sI184
S'            ccode = code'
p112
sI185
S'        else:'
p113
sI186
S'            ccode = compile2(code,layer)'
p114
sI187
S''
sI188
S'        exec ccode in environment'
p115
sI189
S'    except HTTP:'
p116
sI190
S'        raise'
p117
sI191
S'    except Exception:'
p118
ssS'call'
p119
S"(code='# coding: utf8\\n\\ndef create():\\n\\n    form = crud.c...\\n\\nresponse._vars=response._caller(simple_report)\\n', environment={'A': <class 'gluon.html.A'>, 'Auth': <class 'gluon.tools.Auth'>, 'B': <class 'gluon.html.B'>, 'BEAUTIFY': <class 'gluon.html.BEAUTIFY'>, 'BODY': <class 'gluon.html.BODY'>, 'BR': <class 'gluon.html.BR'>, 'CENTER': <class 'gluon.html.CENTER'>, 'CLEANUP': <class 'gluon.validators.CLEANUP'>, 'CODE': <class 'gluon.html.CODE'>, 'CRYPT': <class 'gluon.validators.CRYPT'>, ...}, layer='/home/lucasdavila/central/ws/web2py/src/web2pyde...plications/plugin_appreport/controllers/person.py')"
p120
sS'func'
p121
S'restricted'
p122
sa(dp123
g99
S'/home/lucasdavila/central/ws/web2py/src/web2pydev/applications/plugin_appreport/controllers/person.py'
p124
sg101
(dp125
sg107
I58
sg108
(dp126
I47
S'                                <td>Lucas Davila</td>'
p127
sI48
S'                                <td>lucassdvl@gmail.com</td>'
p128
sI49
S'                                <td>@lucadavila</td>'
p129
sI50
S'                            </tr>'
p130
sI51
S'                        </tbody>'
p131
sI52
S'                    </table>'
p132
sI53
S'                </body>'
p133
sI54
S'            </html>'
p134
sI55
S'    """'
p135
sI56
S"    return plugin_appreport.REPORT(html = html, title = 'my custom report using the plugin appreport')"
p136
ssg119
S'()'
p137
sg121
S'<module>'
p138
sa(dp139
g99
S'/home/lucasdavila/central/ws/web2py/src/web2pydev/gluon/globals.py'
p140
sg101
(dp141
S'self'
p142
S'undefined'
p143
sS'f'
S'<function simple_report>'
p144
ssg107
I95
sg108
(dp145
I96
S'        self._view_environment = None'
p146
sI97
S'        self._custom_commit = None'
p147
sI98
S'        self._custom_rollback = None'
p148
sI99
S''
sI90
S"        self.flash = ''           # used by the default view layout"
p149
sI91
S'        self.meta = Storage()     # used by web2py_ajax.html'
p150
sI92
S'        self.menu = []            # used by the default view layout'
p151
sI93
S'        self.files = []           # used by web2py_ajax.html'
p152
sI94
S'        self._vars = None'
p153
sI95
S'        self._caller = lambda f: f()'
p154
ssg119
S'(f=<function simple_report>)'
p155
sg121
S'<lambda>'
p156
sa(dp157
g99
S'/home/lucasdavila/central/ws/web2py/src/web2pydev/applications/plugin_appreport/controllers/person.py'
p158
sg101
(dp159
S'form.vars'
p160
S"<Storage {'person.phone': '', 'person.email': '', 'person.id': '', 'person.name': ''}>"
p161
sS'form'
p162
S'<gluon.html.FORM object>'
p163
sS'title'
p164
g143
sS'builtinfilter'
p165
S'<built-in function filter>'
p166
sS'builtindict'
p167
S"<type 'dict'>"
p168
sS'global plugin_appreport'
p169
S'<__builtin__.PluginAppreport instance>'
p170
sS'table'
p171
g143
sS'global person'
p172
S"<Table {'ALL': <gluon.dal.SQLALL object at 0x970...c>, 'id': <gluon.dal.Field object at 0x9704e4c>}>"
p173
sS'plugin_appreport.REPORT'
p174
S'<bound method PluginAppreport.REPORT of <__builtin__.PluginAppreport instance>>'
p175
ssg107
I16
sg108
(dp176
I11
S'def simple_report():'
p177
sI12
S''
sI13
S'    form = plugin_appreport.REPORTFORM(table=person)'
p178
sI14
S''
sI15
S'    if form.accepts(request.vars, session):'
p179
sI16
S"        return plugin_appreport.REPORT(table = person, title = 'List of persons', filter = dict(form.vars))"
p180
sI17
S''
sI18
S'    return dict(form = form)'
p181
sI19
S''
sI20
S'def complex_report():'
p182
ssg119
S'()'
p183
sg121
S'simple_report'
p184
sa(dp185
g99
S'/home/lucasdavila/central/ws/web2py/src/web2pydev/applications/plugin_appreport/models/plugin_appreport.py'
p186
sg101
(dp187
S'orientation'
p188
S"'P'"
p189
sS'title'
p190
S"'List of persons'"
p191
sS'format'
p192
S"'A4'"
p193
sS'plugin_appreport_appreport.report'
p194
S"<module 'applications.plugin_appreport.modules.p...t/modules/plugin_appreport/appreport/report.pyc'>"
p195
sS'filter'
p196
S"{'person.email': '', 'person.id': '', 'person.name': '', 'person.phone': ''}"
p197
sS'plugin_appreport_appreport.report.ReportHtmlDbWeb2py'
p198
S'<class applications.plugin_appreport.modules.plugin_appreport.appreport.report.ReportHtmlDbWeb2py>'
p199
sS'global plugin_appreport_appreport'
p200
S"<module 'applications.plugin_appreport.modules.p...modules/plugin_appreport/appreport/__init__.pyc'>"
p201
sS'report'
p202
g143
sS'table'
p203
S"<Table {'ALL': <gluon.dal.SQLALL object at 0x970...c>, 'id': <gluon.dal.Field object at 0x9704e4c>}>"
p204
sS'user_name'
p205
S"''"
p206
sS'unit'
p207
S"'mm'"
p208
ssg107
I68
sg108
(dp209
I64
S"        if html.strip() != '':"
p210
sI65
S'            report = plugin_appreport_appreport.report.ReportHtml(user_name = user_name,'
p211
sI66
S'            title = title, html = html, orientation = orientation, unit = unit, format = format)'
p212
sI67
S'        else:'
p213
sI68
S'            report = plugin_appreport_appreport.report.ReportHtmlDbWeb2py(table = table, filter = filter, user_name = user_name, title = title, orientation = orientation, unit = unit, format = format)'
p214
sI69
S''
sI70
S'        pdf_builder = plugin_appreport_appreport.pdf_builder.PdfBuilderPyfpdf(report = report)'
p215
sI71
S''
sI72
S"        return plugin_appreport_appreport.report_factory.ReportFactoryWeb2py(response = response, request = request, path_reports = 'private/plugin_appreport/reports', pdf_builder = pdf_builder).dumps(report = report)"
p216
sI63
S''
ssg119
S"(self=<__builtin__.PluginAppreport instance>, table=<Table {'ALL': <gluon.dal.SQLALL object at 0x970...c>, 'id': <gluon.dal.Field object at 0x9704e4c>}>, filter={'person.email': '', 'person.id': '', 'person.name': '', 'person.phone': ''}, title='List of persons', html='', orientation='P', unit='mm', format='A4')"
p217
sg121
S'REPORT'
p218
sa(dp219
g99
S'/home/lucasdavila/central/ws/web2py/src/web2pydev/applications/plugin_appreport/modules/plugin_appreport/appreport/report.py'
p220
sg101
(dp221
S'format'
p222
S"'A4'"
p223
sS'orientation'
p224
S"'P'"
p225
sS'unit'
p226
S"'mm'"
p227
sS'title'
p228
S"'List of persons'"
p229
ssg107
I83
sg108
(dp230
I78
S''
sI79
S''
sI80
S"    def __init__(self, table, filter = '', user_name = 'anonymous', title = 'Report', orientation = 'P', unit = 'mm', format = 'A4'):"
p231
sI81
S''
sI82
S'        ReportHtmlDb.__init__(self, db = table._db, table = table, filter = filter, user_name = user_name,'
p232
sI83
S'            title = title, orientation = orientation, unit = unit, format = format)'
p233
sI84
S''
sI85
S'    def _get_filter(self):'
p234
sI86
S''
sI87
S'        return utils.UtilWeb2py().prep_filter(vars = self._filter, table = self.table)'
p235
ssg119
S"(self=<applications.plugin_appreport.modules.plugin_ap...ort.appreport.report.ReportHtmlDbWeb2py instance>, table=<Table {'ALL': <gluon.dal.SQLALL object at 0x970...c>, 'id': <gluon.dal.Field object at 0x9704e4c>}>, filter={'person.email': '', 'person.id': '', 'person.name': '', 'person.phone': ''}, user_name='', title='List of persons', orientation='P', unit='mm', format='A4')"
p236
sg121
g49
sa(dp237
g99
S'/home/lucasdavila/central/ws/web2py/src/web2pydev/applications/plugin_appreport/modules/plugin_appreport/appreport/report.py'
p238
sg101
(dp239
S'orientation'
p240
S"'P'"
p241
sS'format'
p242
S"'A4'"
p243
sS'self'
p244
S'<applications.plugin_appreport.modules.plugin_ap...ort.appreport.report.ReportHtmlDbWeb2py instance>'
p245
sS'html'
p246
g143
sS'self.get_html'
p247
S'<bound method ReportHtmlDbWeb2py.get_html of <ap...rt.appreport.report.ReportHtmlDbWeb2py instance>>'
p248
sS'unit'
p249
S"'mm'"
p250
ssg107
I66
sg108
(dp251
I64
S'        self._filter = filter'
p252
sI65
S'        ReportHtml.__init__(self, user_name = user_name, title = title,'
p253
sI66
S'            html = self.get_html(), orientation = orientation, unit = unit, format = format)'
p254
sI67
S''
sI68
S'    def _get_filter(self):'
p255
sI69
S''
sI70
S'        return self._filter'
p256
sI61
S''
sI62
S'        self.db = db'
p257
sI63
S'        self.table = table'
p258
ssg119
S"(self=<applications.plugin_appreport.modules.plugin_ap...ort.appreport.report.ReportHtmlDbWeb2py instance>, db=<DAL {'auth_permission': <Table {'ALL': <gluon.d...0x970dfac>}>, '_migrate': True, '_pool_size': 0}>, table=<Table {'ALL': <gluon.dal.SQLALL object at 0x970...c>, 'id': <gluon.dal.Field object at 0x9704e4c>}>, filter={'person.email': '', 'person.id': '', 'person.name': '', 'person.phone': ''}, user_name='', title='List of persons', orientation='P', unit='mm', format='A4')"
p259
sg121
g49
sa(dp260
g99
S'/home/lucasdavila/central/ws/web2py/src/web2pydev/applications/plugin_appreport/modules/plugin_appreport/appreport/report.py'
p261
sg101
(dp262
S'records'
p263
g143
sS'self'
p264
S'<applications.plugin_appreport.modules.plugin_ap...ort.appreport.report.ReportHtmlDbWeb2py instance>'
p265
sS'self.db'
p266
S"<DAL {'auth_permission': <Table {'ALL': <gluon.d...0x970dfac>}>, '_migrate': True, '_pool_size': 0}>"
p267
sS'self._get_filter'
p268
S'<bound method ReportHtmlDbWeb2py._get_filter of ...rt.appreport.report.ReportHtmlDbWeb2py instance>>'
p269
sS').select'
p270
g143
ssg107
I92
sg108
(dp271
I84
S''
sI85
S'    def _get_filter(self):'
p272
sI86
S''
sI87
S'        return utils.UtilWeb2py().prep_filter(vars = self._filter, table = self.table)'
p273
sI88
S''
sI89
S'    def get_html(self):'
p274
sI90
S''
sI91
S'        #TODO: se records < 1 ent\xc3\xa3o exibir mensagem sem dados para exibir ?'
p275
sI92
S'        records = self.db(self._get_filter()).select()'
p276
sI93
S"        return '<html>%s</html>'%BODY(SQLTABLE(records, headers='fieldname:capitalize'))"
p277
ssg119
S'(self=<applications.plugin_appreport.modules.plugin_ap...ort.appreport.report.ReportHtmlDbWeb2py instance>)'
p278
sg121
S'get_html'
p279
sa(dp280
g99
S'/home/lucasdavila/central/ws/web2py/src/web2pydev/applications/plugin_appreport/modules/plugin_appreport/appreport/report.py'
p281
sg101
(dp282
S'utils.UtilWeb2py'
p283
g143
sS'self._filter'
p284
S"{'person.email': '', 'person.id': '', 'person.name': '', 'person.phone': ''}"
p285
sS'global utils'
p286
S"<module 'applications.plugin_appreport.modules.p...odules/plugin_appreport/appreport/libs/utils.py'>"
p287
sS'self'
p288
S'<applications.plugin_appreport.modules.plugin_ap...ort.appreport.report.ReportHtmlDbWeb2py instance>'
p289
sS'builtinvars'
p290
S'<built-in function vars>'
p291
sS'table'
p292
g143
sS'self.table'
p293
S"<Table {'ALL': <gluon.dal.SQLALL object at 0x970...c>, 'id': <gluon.dal.Field object at 0x9704e4c>}>"
p294
ssg107
I87
sg108
(dp295
I82
S'        ReportHtmlDb.__init__(self, db = table._db, table = table, filter = filter, user_name = user_name,'
p296
sI83
S'            title = title, orientation = orientation, unit = unit, format = format)'
p297
sI84
S''
sI85
S'    def _get_filter(self):'
p298
sI86
S''
sI87
S'        return utils.UtilWeb2py().prep_filter(vars = self._filter, table = self.table)'
p299
sI88
S''
sI89
S'    def get_html(self):'
p300
sI90
S''
sI91
S'        #TODO: se records < 1 ent\xc3\xa3o exibir mensagem sem dados para exibir ?'
p301
ssg119
S'(self=<applications.plugin_appreport.modules.plugin_ap...ort.appreport.report.ReportHtmlDbWeb2py instance>)'
p302
sg121
S'_get_filter'
p303
sasS'pyver'
p304
S'Python 2.6.6: /usr/bin/python'
p305
sS'session'
p306
(dp307
S'_formkey[person/None]'
p308
S"'694cb263-72ed-4f0e-a3f5-f2dd18fe1b84'"
p309
sS'_formkey[default]'
p310
S"'388b1fc2-7404-4a53-b193-3dfed9524e3b'"
p311
sS'auth'
p312
S'None'
p313
ssS'etype'
p314
S"<type 'exceptions.AttributeError'>"
p315
sS'date'
p316
S'Tue Jan 25 23:08:53 2011'
p317
sS'response'
p318
(dp319
S'status'
p320
S'200'
p321
sg59
S'<cStringIO.StringO object>'
p322
sg76
S"<SimpleCookie: session_id_plugin_appreport='127.0.0.1-56d0272b-4d25-4fdb-bf2c-da2c92731bad'>"
p323
sS'_vars'
p324
S'None'
p325
sS'title'
p326
S"'Plugin appreport'"
p327
sS'session_file'
p328
S"<open file '/home/lucasdavila/central/ws/web2py/...6d0272b-4d25-4fdb-bf2c-da2c92731bad', mode 'rb+'>"
p329
sS'flash'
p330
S"''"
p331
sS'_custom_rollback'
p332
S'None'
p333
sS'session_id'
p334
S"'127.0.0.1-56d0272b-4d25-4fdb-bf2c-da2c92731bad'"
p335
sS'headers'
p336
S"<Storage {'Expires': 'Wed, 26 Jan 2011 01:08:53 ...he, must-revalidate, post-check=0, pre-check=0'}>"
p337
sS'meta'
p338
S"<Storage {'keywords': 'web2py, python, framework... 'Web2py Enterprise Framework', 'author': 'you'}>"
p339
sS'session_filename'
p340
S"'/home/lucasdavila/central/ws/web2py/src/web2pyde...ns/127.0.0.1-56d0272b-4d25-4fdb-bf2c-da2c92731bad'"
p341
sS'postprocessing'
p342
S'[]'
p343
sS'menu'
p344
S"[(<lazyT 'Home'>, False, <gluon.html.XML object>, []), (<lazyT 'Files'>, False, <gluon.html.XML object>, [('person', False, <gluon.html.XML object>)]), (<lazyT 'Repors'>, False, <gluon.html.XML object>, [('Simple', False, <gluon.html.XML object>), ('Custon', False, <gluon.html.XML object>), ('Complex', False, <gluon.html.XML object>)]), (<lazyT 'About'>, False, <gluon.html.XML object>, [])]"
p345
sS'_view_environment'
p346
S"{'A': <class 'gluon.html.A'>, 'Auth': <class 'gluon.tools.Auth'>, 'B': <class 'gluon.html.B'>, 'BEAUTIFY': <class 'gluon.html.BEAUTIFY'>, 'BODY': <class 'gluon.html.BODY'>, 'BR': <class 'gluon.html.BR'>, 'CENTER': <class 'gluon.html.CENTER'>, 'CLEANUP': <class 'gluon.validators.CLEANUP'>, 'CODE': <class 'gluon.html.CODE'>, 'CRYPT': <class 'gluon.validators.CRYPT'>, ...}"
p347
sS'subtitle'
p348
S"<lazyT 'customize me!'>"
p349
sS'session_id_name'
p350
S"'session_id_plugin_appreport'"
p351
sS'_custom_commit'
p352
S'None'
p353
sS'_caller'
p354
S'<function <lambda>>'
p355
sS'files'
p356
S'[]'
p357
sS'view'
p358
S"'person/simple_report.html'"
p359
ssS'locals'
p360
(dp361
S'self'
p362
S'<applications.plugin_appreport.modules.plugin_ap...ort.appreport.report.ReportHtmlDbWeb2py instance>'
p363
sssS'traceback'
p364
S'Traceback (most recent call last):\n  File "/home/lucasdavila/central/ws/web2py/src/web2pydev/gluon/restricted.py", line 188, in restricted\n    exec ccode in environment\n  File "/home/lucasdavila/central/ws/web2py/src/web2pydev/applications/plugin_appreport/controllers/person.py", line 58, in <module>\n  File "/home/lucasdavila/central/ws/web2py/src/web2pydev/gluon/globals.py", line 95, in <lambda>\n    self._caller = lambda f: f()\n  File "/home/lucasdavila/central/ws/web2py/src/web2pydev/applications/plugin_appreport/controllers/person.py", line 16, in simple_report\n    return plugin_appreport.REPORT(table = person, title = \'List of persons\', filter = dict(form.vars))\n  File "/home/lucasdavila/central/ws/web2py/src/web2pydev/applications/plugin_appreport/models/plugin_appreport.py", line 68, in REPORT\n    report = plugin_appreport_appreport.report.ReportHtmlDbWeb2py(table = table, filter = filter, user_name = user_name, title = title, orientation = orientation, unit = unit, format = format)\n  File "applications/plugin_appreport/modules/plugin_appreport/appreport/report.py", line 83, in __init__\n    title = title, orientation = orientation, unit = unit, format = format)\n  File "applications/plugin_appreport/modules/plugin_appreport/appreport/report.py", line 66, in __init__\n    html = self.get_html(), orientation = orientation, unit = unit, format = format)\n  File "applications/plugin_appreport/modules/plugin_appreport/appreport/report.py", line 92, in get_html\n    records = self.db(self._get_filter()).select()\n  File "applications/plugin_appreport/modules/plugin_appreport/appreport/report.py", line 87, in _get_filter\n    return utils.UtilWeb2py().prep_filter(vars = self._filter, table = self.table)\nAttributeError: \'module\' object has no attribute \'UtilWeb2py\'\n'
p365
s.